
FreeRTOS_niosII.elf:     file format elf32-littlenios2
FreeRTOS_niosII.elf
architecture: nios2:r1, flags 0x00000112:
EXEC_P, HAS_SYMS, D_PAGED
start address 0x02000250

Program Header:
    LOAD off    0x00001020 vaddr 0x02000020 paddr 0x02000020 align 2**12
         filesz 0x0001be94 memsz 0x0081c250 flags rwx
    LOAD off    0x0001d000 vaddr 0x04001000 paddr 0x04001000 align 2**12
         filesz 0x00000000 memsz 0x00000000 flags r-x

Sections:
Idx Name          Size      VMA       LMA       File off  Algn
  0 .entry        00000000  04001000  04001000  0001d000  2**5
                  CONTENTS, ALLOC, LOAD, READONLY, CODE
  1 .exceptions   00000230  02000020  02000020  00001020  2**2
                  CONTENTS, ALLOC, LOAD, READONLY, CODE
  2 .text         00019a04  02000250  02000250  00001250  2**2
                  CONTENTS, ALLOC, LOAD, READONLY, CODE
  3 .rodata       0000051c  02019c54  02019c54  0001ac54  2**2
                  CONTENTS, ALLOC, LOAD, READONLY, DATA
  4 .rwdata       00001d44  0201a170  0201a170  0001b170  2**2
                  CONTENTS, ALLOC, LOAD, DATA, SMALL_DATA
  5 .bss          00800466  0201beb4  0201beb4  0001ceb4  2**2
                  ALLOC, SMALL_DATA
  6 .sdram        00000000  0281c270  0281c270  0001d000  2**0
                  CONTENTS
  7 .epcs         00000000  04001020  04001020  0001d000  2**0
                  CONTENTS
  8 .comment      00000023  00000000  00000000  0001d000  2**0
                  CONTENTS, READONLY
  9 .debug_aranges 00001280  00000000  00000000  0001d028  2**3
                  CONTENTS, READONLY, DEBUGGING
 10 .debug_info   0002f57d  00000000  00000000  0001e2a8  2**0
                  CONTENTS, READONLY, DEBUGGING
 11 .debug_abbrev 0000be98  00000000  00000000  0004d825  2**0
                  CONTENTS, READONLY, DEBUGGING
 12 .debug_line   000102eb  00000000  00000000  000596bd  2**0
                  CONTENTS, READONLY, DEBUGGING
 13 .debug_frame  00004160  00000000  00000000  000699a8  2**2
                  CONTENTS, READONLY, DEBUGGING
 14 .debug_str    0000629c  00000000  00000000  0006db08  2**0
                  CONTENTS, READONLY, DEBUGGING
 15 .debug_loc    00018402  00000000  00000000  00073da4  2**0
                  CONTENTS, READONLY, DEBUGGING
 16 .debug_alt_sim_info 00000010  00000000  00000000  0008c1a8  2**2
                  CONTENTS, READONLY, DEBUGGING
 17 .debug_ranges 00001970  00000000  00000000  0008c1b8  2**3
                  CONTENTS, READONLY, DEBUGGING
 18 .thread_model 00000003  00000000  00000000  00093c3e  2**0
                  CONTENTS, READONLY
 19 .cpu          00000003  00000000  00000000  00093c41  2**0
                  CONTENTS, READONLY
 20 .qsys         00000001  00000000  00000000  00093c44  2**0
                  CONTENTS, READONLY
 21 .simulation_enabled 00000001  00000000  00000000  00093c45  2**0
                  CONTENTS, READONLY
 22 .sysid_hash   00000004  00000000  00000000  00093c46  2**0
                  CONTENTS, READONLY
 23 .sysid_base   00000004  00000000  00000000  00093c4a  2**0
                  CONTENTS, READONLY
 24 .sysid_time   00000004  00000000  00000000  00093c4e  2**0
                  CONTENTS, READONLY
 25 .stderr_dev   00000004  00000000  00000000  00093c52  2**0
                  CONTENTS, READONLY
 26 .stdin_dev    00000004  00000000  00000000  00093c56  2**0
                  CONTENTS, READONLY
 27 .stdout_dev   00000004  00000000  00000000  00093c5a  2**0
                  CONTENTS, READONLY
 28 .sopc_system_name 00000006  00000000  00000000  00093c5e  2**0
                  CONTENTS, READONLY
 29 .quartus_project_dir 00000032  00000000  00000000  00093c64  2**0
                  CONTENTS, READONLY
 30 .jdi          000041ef  00000000  00000000  00093c96  2**0
                  CONTENTS, READONLY
 31 .sopcinfo     0006ca6c  00000000  00000000  00097e85  2**0
                  CONTENTS, READONLY
SYMBOL TABLE:
04001000 l    d  .entry	00000000 .entry
02000020 l    d  .exceptions	00000000 .exceptions
02000250 l    d  .text	00000000 .text
02019c54 l    d  .rodata	00000000 .rodata
0201a170 l    d  .rwdata	00000000 .rwdata
0201beb4 l    d  .bss	00000000 .bss
0281c270 l    d  .sdram	00000000 .sdram
04001020 l    d  .epcs	00000000 .epcs
00000000 l    d  .comment	00000000 .comment
00000000 l    d  .debug_aranges	00000000 .debug_aranges
00000000 l    d  .debug_info	00000000 .debug_info
00000000 l    d  .debug_abbrev	00000000 .debug_abbrev
00000000 l    d  .debug_line	00000000 .debug_line
00000000 l    d  .debug_frame	00000000 .debug_frame
00000000 l    d  .debug_str	00000000 .debug_str
00000000 l    d  .debug_loc	00000000 .debug_loc
00000000 l    d  .debug_alt_sim_info	00000000 .debug_alt_sim_info
00000000 l    d  .debug_ranges	00000000 .debug_ranges
00000000 l    df *ABS*	00000000 ../FreeRTOS_niosII_bsp//obj/HAL/src/crt0.o
02000284 l       .text	00000000 alt_after_alt_main
00000000 l    df *ABS*	00000000 obj/default/FreeRTOS/Source/portable/GCC/NiosII/port_asm.o
02000020 l       .exceptions	00000000 save_context
0200009c l       .exceptions	00000000 save_sp_to_pxCurrentTCB
020000ac l       .exceptions	00000000 hw_irq_test
02000150 l       .exceptions	00000000 soft_exceptions
020000c0 l       .exceptions	00000000 hw_irq_handler
020000d4 l       .exceptions	00000000 restore_context
0200016c l       .exceptions	00000000 call_scheduler
00000000 l    df *ABS*	00000000 alt_irq_handler.c
00000000 l    df *ABS*	00000000 BlockQ.c
0201beb4 l     O .bss	00000006 sBlockingConsumerCount
0201beba l     O .bss	00000006 sBlockingProducerCount
02000598 l     F .text	000000a0 vBlockingQueueConsumer
0200050c l     F .text	0000008c vBlockingQueueProducer
0201bec0 l     O .bss	00000006 sLastBlockingConsumerCount.2740
0201bec6 l     O .bss	00000006 sLastBlockingProducerCount.2741
00000000 l    df *ABS*	00000000 GenQTest.c
0201becc l     O .bss	00000004 xErrorDetected
0201bed0 l     O .bss	00000004 ulLoopCounter
0201bed4 l     O .bss	00000004 ulLoopCounter2
0201bed8 l     O .bss	00000004 ulGuardedVariable
0201bedc l     O .bss	00000004 xHighPriorityMutexTask
0201bee0 l     O .bss	00000004 xMediumPriorityMutexTask
0201bee4 l     O .bss	00000004 xBlockWasAborted
02000860 l     F .text	00000468 prvSendFrontAndBackTest
02000fac l     F .text	0000005c prvLowPriorityMutexTask
02001008 l     F .text	0000002c prvMediumPriorityMutexTask
02001034 l     F .text	0000007c prvHighPriorityMutexTask
02000cc8 l     F .text	0000018c prvTakeTwoMutexesReturnInDifferentOrder
02000e54 l     F .text	00000158 prvTakeTwoMutexesReturnInSameOrder
0201bee8 l     O .bss	00000004 ulLastLoopCounter.2773
0201beec l     O .bss	00000004 ulLastLoopCounter2.2774
00000000 l    df *ABS*	00000000 PollQ.c
0201bef0 l     O .bss	00000004 xPollingConsumerCount
0201bef4 l     O .bss	00000004 xPollingProducerCount
0201bef8 l     O .bss	00000004 xPolledQueue.2707
0200124c l     F .text	000000b0 vPolledQueueConsumer
020011a8 l     F .text	000000a4 vPolledQueueProducer
00000000 l    df *ABS*	00000000 QPeek.c
0201befc l     O .bss	00000004 xErrorDetected
0201bf00 l     O .bss	00000004 ulLoopCounter
020016cc l     F .text	00000164 prvLowPriorityPeekTask
02001644 l     F .text	00000088 prvMediumPriorityPeekTask
02001584 l     F .text	000000c0 prvHighPriorityPeekTask
02001430 l     F .text	00000154 prvHighestPriorityPeekTask
0201bf04 l     O .bss	00000004 ulLastLoopCounter.2743
00000000 l    df *ABS*	00000000 blocktim.c
0201bf14 l     O .bss	00000004 xTestQueue
0201bf18 l     O .bss	00000004 xSecondary
0201bf1c l     O .bss	00000004 xPrimaryCycles
0201bf20 l     O .bss	00000004 xSecondaryCycles
0201bf24 l     O .bss	00000004 xErrorOccurred
0201bf28 l     O .bss	00000004 xRunIndicator
0200190c l     F .text	00000418 vPrimaryBlockTimeTestTask
02001d24 l     F .text	0000012c vSecondaryBlockTimeTestTask
02001e50 l     F .text	0000011c prvBasicDelayTests
0201bf2c l     O .bss	00000004 xLastPrimaryCycleCount.2356
0201bf30 l     O .bss	00000004 xLastSecondaryCycleCount.2357
00000000 l    df *ABS*	00000000 comtest.c
0201bf34 l     O .bss	00000004 xPort
0201bf38 l     O .bss	00000004 uxBaseLED
0201bf3c l     O .bss	00000004 uxRxLoops
02002070 l     F .text	000000b4 vComTxTask
02002124 l     F .text	00000118 vComRxTask
00000000 l    df *ABS*	00000000 countsem.c
0201bf40 l     O .bss	00000004 xErrorDetected
0201c068 l     O .bss	00000018 xParameters
02002504 l     F .text	000000a8 prvCountingSemaphoreTask
0200237c l     F .text	000000c0 prvDecrementSemaphoreCount
0200243c l     F .text	000000c8 prvIncrementSemaphoreCount
0201bf44 l     O .bss	00000004 uxLastCount0.2321
0201bf48 l     O .bss	00000004 uxLastCount1.2322
00000000 l    df *ABS*	00000000 death.c
0201bf4c l     O .bss	00000002 usCreationCount
0201bf50 l     O .bss	00000004 uxTasksRunningAtStart
0201be5c l     O .rwdata	00000004 uxMaxNumberOfExtraTasksRunning
02002718 l     F .text	000000a8 vCreateTasks
0200268c l     F .text	0000008c vSuicidalTask
0201be60 l     O .rwdata	00000002 usLastCreationCount.2611
0201bf54 l     O .bss	00000004 uxTasksRunningNow.2613
00000000 l    df *ABS*	00000000 dynamic.c
0201bf5c l     O .bss	00000004 xContinuousIncrementHandle
0201bf60 l     O .bss	00000004 xLimitedIncrementHandle
0201bf64 l     O .bss	00000004 ulCounter
0201bf68 l     O .bss	00000002 usCheckVariable
0201bf6c l     O .bss	00000004 xSuspendedQueueSendError
0201bf70 l     O .bss	00000004 xSuspendedQueueReceiveError
0201bf74 l     O .bss	00000004 ulExpectedValue
020029a0 l     F .text	00000060 vContinuousIncrementTask
0200294c l     F .text	00000054 vLimitedIncrementTask
02002a00 l     F .text	000000dc vCounterControlTask
02002adc l     F .text	0000005c vQueueSendWhenSuspendedTask
02002b38 l     F .text	00000084 vQueueReceiveWhenSuspendedTask
0201bf78 l     O .bss	00000004 ulValueToSend.2744
0201bf7c l     O .bss	00000002 usLastTaskCheck.2757
0201bf80 l     O .bss	00000004 ulLastExpectedValue.2758
00000000 l    df *ABS*	00000000 flash.c
0201bf88 l     O .bss	00000004 uxFlashTaskNumber
02002cb0 l     F .text	00000090 vLEDFlashTask
00000000 l    df *ABS*	00000000 integer.c
0201bf8c l     O .bss	00000004 xTaskCheck
02002dc4 l     F .text	0000009c vCompeteingIntMathTask
00000000 l    df *ABS*	00000000 recmutex.c
0201bf90 l     O .bss	00000004 xMutex
0201bf94 l     O .bss	00000004 xErrorOccurred
0201bf98 l     O .bss	00000004 xControllingIsSuspended
0201bf9c l     O .bss	00000004 xBlockingIsSuspended
0201bfa0 l     O .bss	00000004 uxControllingCycles
0201bfa4 l     O .bss	00000004 uxBlockingCycles
0201bfa8 l     O .bss	00000004 uxPollingCycles
0201bfac l     O .bss	00000004 xControllingTaskHandle
0201bfb0 l     O .bss	00000004 xBlockingTaskHandle
02002f94 l     F .text	000000fc prvRecursiveMutexControllingTask
02003090 l     F .text	000000a8 prvRecursiveMutexBlockingTask
02003138 l     F .text	000000b4 prvRecursiveMutexPollingTask
0201bfb4 l     O .bss	00000004 uxLastControllingCycles.2320
0201bfb8 l     O .bss	00000004 uxLastBlockingCycles.2321
0201bfbc l     O .bss	00000004 uxLastPollingCycles.2322
00000000 l    df *ABS*	00000000 semtest.c
0201bfc0 l     O .bss	00000008 sCheckVariables
0201bfc8 l     O .bss	00000002 sNextCheckVariable
02003460 l     F .text	00000184 prvSemaphoreTest
0201bfca l     O .bss	00000008 sLastCheckVariables.2730
00000000 l    df *ABS*	00000000 ParTest.c
0201bfd4 l     O .bss	00000004 ulLedStates
00000000 l    df *ABS*	00000000 list.c
00000000 l    df *ABS*	00000000 port.c
02003bcc l     F .text	000000a4 prvSetupTimerInterrupt
00000000 l    df *ABS*	00000000 heap_2.c
0201c080 l     O .bss	00800000 ucHeap
0201be64 l     O .rwdata	00000002 heapSTRUCT_SIZE
0201bfd8 l     O .bss	00000008 xStart
0201bfe0 l     O .bss	00000008 xEnd
0201be68 l     O .rwdata	00000004 xFreeBytesRemaining
0201bfe8 l     O .bss	00000004 xHeapHasBeenInitialised.2596
020041e4 l     F .text	00000074 prvHeapInit
00000000 l    df *ABS*	00000000 queue.c
0200442c l     F .text	00000084 prvInitialiseNewQueue
020044b0 l     F .text	00000060 prvInitialiseMutex
02005288 l     F .text	0000018c prvCopyDataToQueue
0200563c l     F .text	00000058 prvIsQueueFull
020054b0 l     F .text	000000f4 prvUnlockQueue
02005414 l     F .text	0000009c prvCopyDataFromQueue
020055a4 l     F .text	00000050 prvIsQueueEmpty
02005238 l     F .text	00000050 prvGetDisinheritPriorityAfterTimeout
00000000 l    df *ABS*	00000000 tasks.c
0281c080 l     O .bss	00000064 pxReadyTasksLists
0281c0e4 l     O .bss	00000014 xDelayedTaskList1
0281c0f8 l     O .bss	00000014 xDelayedTaskList2
0201bff0 l     O .bss	00000004 pxDelayedTaskList
0201bff4 l     O .bss	00000004 pxOverflowDelayedTaskList
0281c10c l     O .bss	00000014 xPendingReadyList
0281c120 l     O .bss	00000014 xTasksWaitingTermination
0201bff8 l     O .bss	00000004 uxDeletedTasksWaitingCleanUp
0281c134 l     O .bss	00000014 xSuspendedTaskList
0201bffc l     O .bss	00000004 uxCurrentNumberOfTasks
0201c000 l     O .bss	00000004 xTickCount
0201c004 l     O .bss	00000004 uxTopReadyPriority
0201c008 l     O .bss	00000004 xSchedulerRunning
0201c00c l     O .bss	00000004 uxPendedTicks
0201c010 l     O .bss	00000004 xYieldPending
0201c014 l     O .bss	00000004 xNumOfOverflows
0201c018 l     O .bss	00000004 uxTaskNumber
0201c01c l     O .bss	00000004 xNextTaskUnblockTime
0201c020 l     O .bss	00000004 xIdleTaskHandle
0201c024 l     O .bss	00000004 uxSchedulerSuspended
020057cc l     F .text	000001e4 prvInitialiseNewTask
020059b0 l     F .text	00000108 prvAddNewTaskToReadyList
02006c90 l     F .text	000000c0 prvInitialiseTaskLists
02006e94 l     F .text	00000044 prvDeleteTCB
02006ed8 l     F .text	00000054 prvResetNextTaskUnblockTime
02007b38 l     F .text	000000e8 prvAddCurrentTaskToDelayedList
0200604c l     F .text	0000006c prvTaskIsTaskSuspended
02006c74 l     F .text	0000001c prvIdleTask
02006d50 l     F .text	00000080 prvCheckTasksWaitingTermination
02006dd0 l     F .text	00000064 prvTaskCheckFreeStackSpace
00000000 l    df *ABS*	00000000 timers.c
00000000 l    df *ABS*	00000000 serial.c
0201c028 l     O .bss	00000004 xRxedChars
0201c02c l     O .bss	00000004 xCharsForTx
02007e90 l     F .text	00000074 vUARTInterruptHandler
02007f04 l     F .text	000000a4 vUARTReceiveHandler
02007fa8 l     F .text	000000a0 vUARTTransmitHandler
00000000 l    df *ABS*	00000000 main.c
020080c0 l     F .text	00000078 prvPrintTask1
02008138 l     F .text	00000034 prvPrintTask2
00000000 l    df *ABS*	00000000 lib2-divmod.c
00000000 l    df *ABS*	00000000 lib2-mul.c
00000000 l    df *ABS*	00000000 fopen.c
00000000 l    df *ABS*	00000000 fseek.c
00000000 l    df *ABS*	00000000 fseeko.c
00000000 l    df *ABS*	00000000 fstatr.c
00000000 l    df *ABS*	00000000 fwrite.c
00000000 l    df *ABS*	00000000 impure.c
0201a170 l     O .rwdata	00000424 impure_data
00000000 l    df *ABS*	00000000 int_errno.c
00000000 l    df *ABS*	00000000 makebuf.c
00000000 l    df *ABS*	00000000 mallocr.c
00000000 l    df *ABS*	00000000 memcpy.c
00000000 l    df *ABS*	00000000 memset.c
00000000 l    df *ABS*	00000000 openr.c
00000000 l    df *ABS*	00000000 printf.c
00000000 l    df *ABS*	00000000 puts.c
00000000 l    df *ABS*	00000000 refill.c
02009818 l     F .text	0000001c lflush
00000000 l    df *ABS*	00000000 sbrkr.c
00000000 l    df *ABS*	00000000 stdio.c
00000000 l    df *ABS*	00000000 strlen.c
00000000 l    df *ABS*	00000000 vfprintf.c
02019e76 l     O .rodata	00000010 zeroes.4404
0200bf28 l     F .text	000000bc __sbprintf
02019e86 l     O .rodata	00000010 blanks.4403
00000000 l    df *ABS*	00000000 writer.c
00000000 l    df *ABS*	00000000 wsetup.c
00000000 l    df *ABS*	00000000 closer.c
00000000 l    df *ABS*	00000000 dtoa.c
0200c1ec l     F .text	00000228 quorem
00000000 l    df *ABS*	00000000 fflush.c
00000000 l    df *ABS*	00000000 findfp.c
0200dd44 l     F .text	00000008 __fp_unlock
0200dd58 l     F .text	0000019c __sinit.part.1
0200def4 l     F .text	00000008 __fp_lock
00000000 l    df *ABS*	00000000 flags.c
00000000 l    df *ABS*	00000000 mallocr.c
00000000 l    df *ABS*	00000000 fvwrite.c
00000000 l    df *ABS*	00000000 fwalk.c
00000000 l    df *ABS*	00000000 isattyr.c
00000000 l    df *ABS*	00000000 locale.c
0201a9bc l     O .rwdata	00000020 lc_ctype_charset
0201a99c l     O .rwdata	00000020 lc_message_charset
0201a9dc l     O .rwdata	00000038 lconv
00000000 l    df *ABS*	00000000 lseekr.c
00000000 l    df *ABS*	00000000 memchr.c
00000000 l    df *ABS*	00000000 memmove.c
00000000 l    df *ABS*	00000000 mprec.c
02019eb4 l     O .rodata	0000000c p05.2768
00000000 l    df *ABS*	00000000 readr.c
00000000 l    df *ABS*	00000000 mallocr.c
00000000 l    df *ABS*	00000000 s_fpclassify.c
00000000 l    df *ABS*	00000000 strcmp.c
00000000 l    df *ABS*	00000000 vfprintf.c
020107c0 l     F .text	000000fc __sprint_r.part.0
02019fd8 l     O .rodata	00000010 zeroes.4349
02011dfc l     F .text	000000bc __sbprintf
02019fe8 l     O .rodata	00000010 blanks.4348
00000000 l    df *ABS*	00000000 mallocr.c
00000000 l    df *ABS*	00000000 fclose.c
00000000 l    df *ABS*	00000000 fputwc.c
00000000 l    df *ABS*	00000000 wbuf.c
00000000 l    df *ABS*	00000000 wcrtomb.c
00000000 l    df *ABS*	00000000 wctomb_r.c
00000000 l    df *ABS*	00000000 libgcc2.c
00000000 l    df *ABS*	00000000 libgcc2.c
00000000 l    df *ABS*	00000000 adddf3.c
00000000 l    df *ABS*	00000000 divdf3.c
00000000 l    df *ABS*	00000000 eqdf2.c
00000000 l    df *ABS*	00000000 gedf2.c
00000000 l    df *ABS*	00000000 ledf2.c
00000000 l    df *ABS*	00000000 muldf3.c
00000000 l    df *ABS*	00000000 subdf3.c
00000000 l    df *ABS*	00000000 fixdfsi.c
00000000 l    df *ABS*	00000000 floatsidf.c
00000000 l    df *ABS*	00000000 floatunsidf.c
00000000 l    df *ABS*	00000000 libgcc2.c
00000000 l    df *ABS*	00000000 libgcc2.c
00000000 l    df *ABS*	00000000 alt_close.c
02015a44 l     F .text	0000003c alt_get_errno
00000000 l    df *ABS*	00000000 alt_dev.c
02015b58 l     F .text	0000002c alt_dev_null_write
00000000 l    df *ABS*	00000000 alt_errno.c
00000000 l    df *ABS*	00000000 alt_fstat.c
02015b84 l     F .text	0000003c alt_get_errno
00000000 l    df *ABS*	00000000 alt_iic.c
00000000 l    df *ABS*	00000000 alt_irq_vars.c
00000000 l    df *ABS*	00000000 alt_isatty.c
02015e28 l     F .text	0000003c alt_get_errno
00000000 l    df *ABS*	00000000 alt_lseek.c
02015f10 l     F .text	0000003c alt_get_errno
00000000 l    df *ABS*	00000000 alt_main.c
00000000 l    df *ABS*	00000000 alt_malloc_lock.c
00000000 l    df *ABS*	00000000 alt_open.c
020160ec l     F .text	0000003c alt_get_errno
02016128 l     F .text	000000ec alt_file_locked
00000000 l    df *ABS*	00000000 alt_read.c
02016370 l     F .text	0000003c alt_get_errno
00000000 l    df *ABS*	00000000 alt_release_fd.c
00000000 l    df *ABS*	00000000 alt_sbrk.c
0201bea0 l     O .rwdata	00000004 heap_end
00000000 l    df *ABS*	00000000 alt_write.c
020165e4 l     F .text	0000003c alt_get_errno
00000000 l    df *ABS*	00000000 alt_sys_init.c
02016720 l     F .text	00000034 alt_dev_reg
0201abbc l     O .rwdata	000000cc epcs
0201ac88 l     O .rwdata	00001060 jtag
0201bce8 l     O .rwdata	000000c4 uart
0201bdac l     O .rwdata	0000002c Button_Pio
0201bdd8 l     O .rwdata	0000002c IO_Pio
0201be04 l     O .rwdata	0000002c LED_Pio
0201be30 l     O .rwdata	0000002c Switch_Pio
00000000 l    df *ABS*	00000000 altera_avalon_epcs_flash_controller.c
0201684c l     F .text	00000034 alt_flash_device_register
020168d4 l     F .text	000003f8 alt_epcs_flash_query
02016ccc l     F .text	000000ec alt_epcs_flash_memcmp
020170a4 l     F .text	00000094 alt_epcs_test_address
00000000 l    df *ABS*	00000000 altera_avalon_jtag_uart_fd.c
00000000 l    df *ABS*	00000000 altera_avalon_jtag_uart_init.c
0201756c l     F .text	0000020c altera_avalon_jtag_uart_irq
02017778 l     F .text	000000a0 altera_avalon_jtag_uart_timeout
00000000 l    df *ABS*	00000000 altera_avalon_jtag_uart_ioctl.c
00000000 l    df *ABS*	00000000 altera_avalon_jtag_uart_read.c
00000000 l    df *ABS*	00000000 altera_avalon_jtag_uart_write.c
00000000 l    df *ABS*	00000000 altera_avalon_timer_sc.c
02017db0 l     F .text	00000078 alt_avalon_timer_sc_irq
00000000 l    df *ABS*	00000000 altera_avalon_uart_fd.c
00000000 l    df *ABS*	00000000 altera_avalon_uart_init.c
02018060 l     F .text	0000009c altera_avalon_uart_irq
020180fc l     F .text	000000e4 altera_avalon_uart_rxirq
020181e0 l     F .text	00000148 altera_avalon_uart_txirq
00000000 l    df *ABS*	00000000 altera_avalon_uart_read.c
0201837c l     F .text	0000003c alt_get_errno
00000000 l    df *ABS*	00000000 altera_avalon_uart_write.c
02018594 l     F .text	0000003c alt_get_errno
00000000 l    df *ABS*	00000000 epcs_commands.c
020187d8 l     F .text	00000038 epcs_test_wip
02018810 l     F .text	0000003c epcs_await_wip_released
00000000 l    df *ABS*	00000000 alt_alarm_start.c
00000000 l    df *ABS*	00000000 alt_dev_llist_insert.c
02018ee4 l     F .text	0000003c alt_get_errno
00000000 l    df *ABS*	00000000 alt_do_ctors.c
00000000 l    df *ABS*	00000000 alt_do_dtors.c
00000000 l    df *ABS*	00000000 alt_find_dev.c
00000000 l    df *ABS*	00000000 alt_find_file.c
00000000 l    df *ABS*	00000000 alt_flash_dev.c
00000000 l    df *ABS*	00000000 alt_get_fd.c
00000000 l    df *ABS*	00000000 alt_io_redirect.c
0201939c l     F .text	000000e4 alt_open_fd
00000000 l    df *ABS*	00000000 alt_tick.c
00000000 l    df *ABS*	00000000 altera_nios2_gen2_irq.c
00000000 l    df *ABS*	00000000 altera_avalon_spi.c
00000000 l    df *ABS*	00000000 atexit.c
00000000 l    df *ABS*	00000000 exit.c
00000000 l    df *ABS*	00000000 memcmp.c
00000000 l    df *ABS*	00000000 __atexit.c
00000000 l    df *ABS*	00000000 __call_atexit.c
00000000 l    df *ABS*	00000000 alt_exit.c
0200ff34 g     F .text	00000074 _mprec_log10
02017018 g     F .text	0000008c alt_epcs_flash_get_info
02000288 g     F .text	00000284 vStartBlockingQueueTasks
02010020 g     F .text	0000008c __any_on
0200ec24 g     F .text	00000054 _isatty_r
02019ec0 g     O .rodata	00000028 __mprec_tinytens
02016028 g     F .text	0000007c alt_main
02009744 g     F .text	000000c0 _puts_r
0281c170 g     O .bss	00000100 alt_irq
0200ed54 g     F .text	00000060 _lseek_r
020000c4 g       .exceptions	00000000 restore_sp_from_pxCurrentTCB
020068ac g     F .text	00000064 vTaskPlaceOnUnorderedEventList
020041a4 g     F .text	00000020 xPortGetFreeHeapSize
0200e0f4 g     F .text	000000ac __sflags
0201441c g     F .text	00000088 .hidden __eqdf2
0281c270 g       *ABS*	00000000 __alt_heap_start
02005cec g     F .text	00000058 uxTaskPriorityGet
02001830 g     F .text	00000044 xAreQueuePeekTasksStillRunning
02009708 g     F .text	0000003c printf
020123f8 g     F .text	0000009c _wcrtomb_r
02009b34 g     F .text	0000005c __sseek
0200e0a4 g     F .text	00000010 __sinit
020122a0 g     F .text	00000140 __swbuf_r
0200ec78 g     F .text	0000007c _setlocale_r
0200defc g     F .text	00000078 __sfmoreglue
020160c8 g     F .text	00000024 __malloc_unlock
020010b0 g     F .text	00000060 xAreGenericQueueTasksStillRunning
0200ee98 g     F .text	0000015c memmove
02001f6c g     F .text	00000068 xAreBlockTimeTestTasksStillRunning
02007318 g     F .text	00000054 vTaskEnterCritical
0200e08c g     F .text	00000018 _cleanup
020048a4 g     F .text	000000e8 xQueueGenericSendFromISR
02006558 g     F .text	00000040 pcTaskGetName
0200eff4 g     F .text	000000a8 _Balloc
020144a4 g     F .text	000000dc .hidden __gtdf2
020196a0 g     F .text	00000024 altera_nios2_gen2_irq_init
0201884c g     F .text	000000fc epcs_sector_erase
04001000 g     F .entry	00000000 __reset
0200456c g     F .text	00000090 xQueueGiveMutexRecursive
02002edc g     F .text	000000b8 vStartRecursiveMutexTasks
0201bfec g     O .bss	00000004 pxCurrentTCB
020088d4 g     F .text	0000005c _fstat_r
0201c034 g     O .bss	00000004 errno
02009ab0 g     F .text	00000008 __seofread
0201c058 g     O .bss	00000004 alt_argv
02023e5c g       *ABS*	00000000 _gp
02005d90 g     F .text	000001c0 vTaskPrioritySet
02006b30 g     F .text	0000003c vTaskInternalSetTimeOutState
0201aa3c g     O .rwdata	00000180 alt_fd_list
0200223c g     F .text	0000003c xAreComTestTasksStillRunning
02003b74 g     F .text	00000038 xPortStartScheduler
02018a90 g     F .text	0000006c epcs_write_status_register
0200630c g     F .text	00000048 vTaskEndScheduler
02019084 g     F .text	00000090 alt_find_dev
02009408 g     F .text	00000148 memcpy
0200685c g     F .text	00000050 vTaskPlaceOnEventList
02006a10 g     F .text	000000d4 vTaskRemoveFromUnorderedEventList
020031ec g     F .text	0000009c xAreRecursiveMutexTasksStillRunning
0200dd4c g     F .text	0000000c _cleanup_r
0201585c g     F .text	000000dc .hidden __floatsidf
0201bf08 g     O .bss	00000004 xHighPriorityTask
02019480 g     F .text	0000007c alt_io_redirect
02014580 g     F .text	000000f4 .hidden __ltdf2
020050b4 g     F .text	0000007c xQueuePeekFromISR
02019c54 g       *ABS*	00000000 __DTOR_END__
02009804 g     F .text	00000014 puts
020040d8 g     F .text	000000cc vPortFree
020171b0 g     F .text	00000100 alt_epcs_flash_write_block
02010670 g     F .text	00000074 __fpclassifyd
0200fe90 g     F .text	000000a4 __ratio
02011de0 g     F .text	0000001c __vfiprintf_internal
02004c10 g     F .text	00000210 xQueueSemaphoreTake
02017970 g     F .text	0000021c altera_avalon_jtag_uart_read
020096d8 g     F .text	00000030 _printf_r
02008264 g     F .text	00000064 .hidden __udivsi3
02002c3c g     F .text	00000074 vStartLEDFlashTasks
02015e64 g     F .text	000000ac isatty
02019f10 g     O .rodata	000000c8 __mprec_tens
0201bf0c g     O .bss	00000004 xMediumPriorityTask
02006e34 g     F .text	00000060 uxTaskGetStackHighWaterMark
0200ecf4 g     F .text	0000000c __locale_charset
02003870 g     F .text	0000008c vListInsertEnd
0201c040 g     O .bss	00000004 __malloc_top_pad
0201be7c g     O .rwdata	00000004 __mb_cur_max
02002848 g     F .text	00000104 vStartDynamicPriorityTasks
0200ed24 g     F .text	0000000c _localeconv_r
0200f428 g     F .text	0000003c __i2b
0200e5d4 g     F .text	000004c8 __sfvwrite_r
02007cd8 g     F .text	00000024 vSerialClose
02009a08 g     F .text	00000054 _sbrk_r
02006190 g     F .text	000000ec xTaskResumeFromISR
020100ac g     F .text	00000060 _read_r
02003844 g     F .text	0000002c vListInitialiseItem
02003770 g     F .text	0000006c vParTestToggleLED
0201be94 g     O .rwdata	00000004 alt_max_fd
02003c70 g     F .text	00000044 vPortSysTickHandler
02011f94 g     F .text	000000f0 _fclose_r
02004a68 g     F .text	000001a8 xQueueReceive
0200dd14 g     F .text	00000030 fflush
0201c03c g     O .bss	00000004 __malloc_max_sbrked_mem
02005d44 g     F .text	0000004c uxTaskPriorityGetFromISR
02003cb4 g     F .text	00000170 alt_irq_register
020036d0 g     F .text	000000a0 vParTestSetLED
020131a0 g     F .text	000008ac .hidden __adddf3
02017138 g     F .text	00000078 alt_epcs_flash_erase_block
0200fc38 g     F .text	0000010c __b2d
02012bdc g     F .text	000005c4 .hidden __umoddi3
02015f4c g     F .text	000000dc lseek
0201be6c g     O .rwdata	00000004 _global_impure_ptr
02018d5c g     F .text	0000005c epcs_exit_4_bytes_mode
0201010c g     F .text	00000564 _realloc_r
0281c270 g       *ABS*	00000000 __bss_end
02003e24 g     F .text	000000e0 alt_iic_isr_register
02000638 g     F .text	00000128 xAreBlockingQueuesStillRunning
02019598 g     F .text	00000108 alt_tick
020125e0 g     F .text	000005fc .hidden __udivdi3
020121fc g     F .text	00000024 _fputwc_r
02019ee8 g     O .rodata	00000028 __mprec_bigtens
0200f20c g     F .text	00000104 __s2b
02015938 g     F .text	000000a8 .hidden __floatunsidf
0200f978 g     F .text	00000060 __mcmp
02003f04 g     F .text	000001d4 pvPortMalloc
02017fb4 g     F .text	000000ac altera_avalon_uart_init
020012fc g     F .text	00000048 xArePollingQueuesStillRunning
0200e0c4 g     F .text	00000018 __fp_lock_all
02015ddc g     F .text	0000004c alt_ic_irq_enabled
020051fc g     F .text	0000003c vQueueDelete
02003bac g     F .text	00000020 vPortEndScheduler
020037dc g     F .text	00000068 vListInitialise
020194fc g     F .text	0000009c alt_alarm_stop
0201c050 g     O .bss	00000004 alt_irq_active
02008474 g     F .text	00000444 _fseeko_r
0200017c g     F .exceptions	000000d4 alt_irq_handler
0201aa14 g     O .rwdata	00000028 alt_dev_null
020064e4 g     F .text	00000028 xTaskGetTickCount
020046f0 g     F .text	000001b4 xQueueGenericSend
0200f310 g     F .text	00000068 __hi0bits
02000760 g     F .text	00000100 vStartGenericQueueTasks
020157dc g     F .text	00000080 .hidden __fixdfsi
020025ac g     F .text	0000008c xAreCountingSemaphoreTasksStillRunning
020070b4 g     F .text	00000108 xTaskPriorityDisinherit
0201be8c g     O .rwdata	00000008 alt_dev_list
02016620 g     F .text	00000100 write
02006910 g     F .text	00000100 xTaskRemoveFromEventList
02015bc0 g     F .text	000000b8 fstat
02014580 g     F .text	000000f4 .hidden __ledf2
02004e20 g     F .text	000001b0 xQueuePeek
02007e04 g     F .text	0000008c vSerialPutString
0200f6f0 g     F .text	00000140 __pow5mult
02007d70 g     F .text	00000094 xSerialPutChar
020108d4 g     F .text	0000150c ___vfiprintf_internal_r
0201c04c g     O .bss	00000004 __nlocale_changed
020082c8 g     F .text	00000058 .hidden __umodsi3
02018c18 g     F .text	00000068 epcs_read_electronic_signature
0281c270 g       *ABS*	00000000 end
02005ab8 g     F .text	000000e8 vTaskDelete
020088b8 g     F .text	0000001c fseeko
020027c0 g     F .text	00000088 xIsCreateTaskStillRunning
020185d0 g     F .text	000001ac altera_avalon_uart_write
02008458 g     F .text	0000001c fseek
020174ac g     F .text	000000c0 altera_avalon_jtag_uart_init
02007410 g     F .text	00000038 pvTaskIncrementMutexHeldCount
02019c54 g       *ABS*	00000000 __CTOR_LIST__
04000000 g       *ABS*	00000000 __alt_stack_pointer
02017e28 g     F .text	0000007c alt_avalon_timer_sc_init
02017f04 g     F .text	00000060 altera_avalon_uart_write_fd
020159e0 g     F .text	00000064 .hidden __clzsi2
02017f64 g     F .text	00000050 altera_avalon_uart_close_fd
02017b8c g     F .text	00000224 altera_avalon_jtag_uart_write
0200e0b4 g     F .text	00000004 __sfp_lock_acquire
0200edb4 g     F .text	000000e4 memchr
02009c30 g     F .text	000022dc ___vfprintf_internal_r
02006b6c g     F .text	000000e0 xTaskCheckForTimeOut
0200e2c4 g     F .text	00000310 _free_r
02006f54 g     F .text	00000160 xTaskPriorityInherit
0200ed00 g     F .text	00000010 __locale_mb_cur_max
02019aa0 g     F .text	00000180 __call_exitprocs
02001fd4 g     F .text	0000009c vAltStartComTestTasks
0201c048 g     O .bss	00000004 __mlocale_changed
02007448 g     F .text	000000b0 ulTaskNotifyTake
0201be74 g     O .rwdata	00000004 __malloc_sbrk_base
02000250 g     F .text	00000038 _start
0201c060 g     O .bss	00000004 _alt_tick_rate
02006354 g     F .text	0000002c vTaskSuspendAll
0200650c g     F .text	0000002c xTaskGetTickCountFromISR
0200f830 g     F .text	00000148 __lshift
020196c4 g     F .text	000001fc alt_avalon_spi_command
0201c064 g     O .bss	00000004 _alt_nticks
020163ac g     F .text	00000104 read
0201678c g     F .text	000000c0 alt_sys_init
020039d4 g     F .text	00000098 uxListRemove
02009678 g     F .text	00000060 _open_r
02019988 g     F .text	00000118 __register_exitproc
0200f464 g     F .text	0000028c __multiply
02017818 g     F .text	00000068 altera_avalon_jtag_uart_close
02008320 g     F .text	00000028 .hidden __mulsi3
0281c148 g     O .bss	00000028 __malloc_current_mallinfo
02007ac0 g     F .text	00000078 xTaskNotifyStateClear
020060b8 g     F .text	000000d8 vTaskResume
0200fd44 g     F .text	0000014c __d2b
02006764 g     F .text	000000f8 vTaskSwitchContext
0201877c g     F .text	0000005c epcs_read_status_register
02017348 g     F .text	00000060 altera_avalon_jtag_uart_read_fd
020192d8 g     F .text	000000c4 alt_get_fd
0200c198 g     F .text	00000054 _close_r
020074f8 g     F .text	000000f4 xTaskNotifyWait
02018c80 g     F .text	00000080 epcs_read_device_id
0201990c g     F .text	0000007c memcmp
02017408 g     F .text	00000050 altera_avalon_jtag_uart_close_fd
0281c270 g       *ABS*	00000000 __alt_stack_base
02017458 g     F .text	00000054 altera_avalon_jtag_uart_ioctl_fd
02008930 g     F .text	000000dc _fwrite_r
0200c044 g     F .text	00000154 __swsetup_r
02005f50 g     F .text	000000fc vTaskSuspend
02013a4c g     F .text	000009d0 .hidden __divdf3
0200df74 g     F .text	00000118 __sfp
0200ffa8 g     F .text	00000078 __copybits
02006538 g     F .text	00000020 uxTaskGetNumberOfTasks
0201a594 g     O .rwdata	00000408 __malloc_av_
0200e0c0 g     F .text	00000004 __sinit_lock_release
02014674 g     F .text	0000086c .hidden __muldf3
02009a5c g     F .text	00000054 __sread
02019114 g     F .text	00000108 alt_find_file
02018f20 g     F .text	000000a4 alt_dev_llist_insert
020160a4 g     F .text	00000024 __malloc_lock
02016534 g     F .text	000000b0 sbrk
020045fc g     F .text	0000009c xQueueTakeMutexRecursive
0200dcb8 g     F .text	0000005c _fflush_r
0201bf10 g     O .bss	00000004 xHighestPriorityTask
02011eb8 g     F .text	000000dc _calloc_r
0201bea4 g     O .rwdata	00000008 alt_flash_dev_list
020075ec g     F .text	000001b8 xTaskGenericNotify
0200843c g     F .text	00000018 fopen
0201beb4 g       *ABS*	00000000 __bss_start
02009550 g     F .text	00000128 memset
02008048 g     F .text	00000078 main
0201c05c g     O .bss	00000004 alt_envp
02001874 g     F .text	00000098 vCreateBlockTimeTasks
0201c038 g     O .bss	00000004 __malloc_max_total_mem
020173a8 g     F .text	00000060 altera_avalon_jtag_uart_write_fd
020123e0 g     F .text	00000018 __swbuf
020038fc g     F .text	000000d8 vListInsert
02009b90 g     F .text	00000008 __sclose
04000000 g       *ABS*	00000000 __alt_heap_limit
02012084 g     F .text	00000014 fclose
0200c414 g     F .text	00001688 _dtoa_r
02008bfc g     F .text	0000080c _malloc_r
02012554 g     F .text	00000030 __ascii_wctomb
0201be98 g     O .rwdata	00000004 alt_errno
02005ba0 g     F .text	000000f0 vTaskDelayUntil
020035e4 g     F .text	000000b8 xAreSemaphoreTasksStillRunning
0200ea9c g     F .text	000000c4 _fwalk
02004fd0 g     F .text	000000e4 xQueueReceiveFromISR
02006f2c g     F .text	00000028 xTaskGetCurrentTaskHandle
0200816c g     F .text	00000084 .hidden __divsi3
02004384 g     F .text	000000a8 xQueueGenericCreate
0200e1a0 g     F .text	00000124 _malloc_trim_r
02019c54 g       *ABS*	00000000 __CTOR_END__
02016db8 g     F .text	00000260 alt_epcs_flash_write
020106e4 g     F .text	000000dc strcmp
02004698 g     F .text	00000058 xQueueCreateCountingSemaphore
02019c54 g       *ABS*	00000000 __DTOR_LIST__
0201bf58 g     O .bss	00000004 xCreatedTask
020077a4 g     F .text	000001f0 xTaskGenericNotifyFromISR
0201441c g     F .text	00000088 .hidden __nedf2
02016754 g     F .text	00000038 alt_irq_init
02002d40 g     F .text	00000084 vStartIntegerMathTasks
020164b0 g     F .text	00000084 alt_release_fd
02006380 g     F .text	00000164 xTaskResumeAll
02005170 g     F .text	00000054 uxQueueSpacesAvailable
02019ff8 g     O .rodata	00000100 .hidden __clz_tab
0200627c g     F .text	00000090 vTaskStartScheduler
0201c044 g     O .bss	00000004 _PathLocale
020198c0 g     F .text	00000014 atexit
0200bfe4 g     F .text	00000060 _write_r
02003a6c g     F .text	00000028 prvReadGp
0200ed30 g     F .text	00000018 setlocale
02005694 g     F .text	00000050 xQueueIsQueueFullFromISR
02001344 g     F .text	000000ec vStartQueuePeekTasks
0201be70 g     O .rwdata	00000004 _impure_ptr
0201c054 g     O .bss	00000004 alt_argc
0200da9c g     F .text	0000021c __sflush_r
02007cfc g     F .text	00000074 xSerialGetChar
02019024 g     F .text	00000060 _do_dtors
0200ed1c g     F .text	00000008 __locale_cjk_lang
02008454 g     F .text	00000004 _fseek_r
02009834 g     F .text	000001d4 __srefill_r
02002e60 g     F .text	0000007c xAreIntegerMathsTaskStillRunning
02001110 g     F .text	00000098 vStartPolledQueueTasks
02002278 g     F .text	00000104 vStartCountingSemaphoreTasks
0200fbd4 g     F .text	00000064 __ulp
0200369c g     F .text	00000034 vParTestInitialise
0200e0dc g     F .text	00000018 __fp_unlock_all
02006c4c g     F .text	00000028 vTaskMissedYield
0201be84 g     O .rwdata	00000008 alt_fs_list
02005130 g     F .text	00000040 uxQueueMessagesWaiting
02006598 g     F .text	000001cc xTaskIncrementTick
0200ed48 g     F .text	0000000c localeconv
02018948 g     F .text	000000f4 epcs_read_buffer
02016880 g     F .text	00000054 alt_epcs_flash_init
02015c78 g     F .text	00000050 alt_ic_isr_register
02008a0c g     F .text	00000034 fwrite
02004258 g     F .text	0000012c xQueueGenericReset
0201beb4 g       *ABS*	00000000 _edata
02002638 g     F .text	00000054 vCreateSuicidalTasks
02017ea4 g     F .text	00000060 altera_avalon_uart_read_fd
0281c270 g       *ABS*	00000000 _end
0201921c g     F .text	00000068 alt_flash_open_dev
02012098 g     F .text	00000164 __fputwc
02017880 g     F .text	000000f0 altera_avalon_jtag_uart_ioctl
020056e4 g     F .text	000000e8 xTaskCreate
0201c030 g     O .bss	00000004 uartControl
020041c4 g     F .text	00000020 vPortInitialiseBlocks
02015d50 g     F .text	0000008c alt_ic_irq_disable
02018d00 g     F .text	0000005c epcs_enter_4_bytes_mode
02009ab8 g     F .text	0000007c __swrite
0201be78 g     O .rwdata	00000004 __malloc_trim_threshold
0200ed10 g     F .text	0000000c __locale_msgcharset
020198d4 g     F .text	00000038 exit
0200eb60 g     F .text	000000c4 _fwalk_reent
0200f9d8 g     F .text	000001fc __mdiff
02019284 g     F .text	00000054 alt_flash_close_dev
020081f0 g     F .text	00000074 .hidden __modsi3
02005c90 g     F .text	0000005c vTaskDelay
04000000 g       *ABS*	00000000 __alt_data_end
0200e0b8 g     F .text	00000004 __sfp_lock_release
02000000 g       *ABS*	00000000 __alt_mem_sdram
020071bc g     F .text	0000015c vTaskPriorityDisinheritAfterTimeout
0201bf84 g     O .bss	00000004 xSuspendedTestQueue
02018328 g     F .text	00000054 altera_avalon_uart_close
02008348 g     F .text	000000f4 _fopen_r
02019c20 g     F .text	00000034 _exit
02018db8 g     F .text	0000012c alt_alarm_start
02008a40 g     F .text	000001bc __smakebuf_r
0200736c g     F .text	00000060 vTaskExitCritical
02002bbc g     F .text	00000080 xAreDynamicPriorityTasksStillRunning
02009b98 g     F .text	00000098 strlen
02018a3c g     F .text	00000054 epcs_write_enable
02003a94 g     F .text	000000e0 pxPortInitialiseStack
02016214 g     F .text	0000015c open
020144a4 g     F .text	000000dc .hidden __gedf2
0201be80 g     O .rwdata	00000004 __wctomb
020108bc g     F .text	00000018 __sprint_r
02006ae4 g     F .text	0000004c vTaskSetTimeOutState
0201be9c g     O .rwdata	00000004 alt_priority_mask
02015cc8 g     F .text	00000088 alt_ic_irq_enable
0200bf0c g     F .text	0000001c __vfprintf_internal
04001000 g       *ABS*	00000000 __alt_mem_epcs
020183b8 g     F .text	000001dc altera_avalon_uart_read
02012584 g     F .text	0000005c _wctomb_r
020051c4 g     F .text	00000038 uxQueueMessagesWaitingFromISR
020055f4 g     F .text	00000048 xQueueIsQueueEmptyFromISR
02014ee0 g     F .text	000008fc .hidden __subdf3
02003288 g     F .text	000001d8 vStartSemaphoreTasks
020172b0 g     F .text	00000098 alt_epcs_flash_read
0200f378 g     F .text	000000b0 __lo0bits
0201beac g     O .rwdata	00000008 alt_alarm_list
02018fc4 g     F .text	00000060 _do_ctors
020073cc g     F .text	00000044 uxTaskResetEventItemValue
02012494 g     F .text	000000c0 wcrtomb
02004510 g     F .text	0000005c xQueueCreateMutex
02015a80 g     F .text	000000d8 close
02007c20 g     F .text	000000b8 xSerialPortInitMinimal
02007994 g     F .text	0000012c vTaskNotifyGiveFromISR
0200498c g     F .text	000000dc xQueueGiveFromISR
02012220 g     F .text	00000080 fputwc
0200e0bc g     F .text	00000004 __sinit_lock_acquire
02018afc g     F .text	0000011c epcs_write_buffer
0200f0c4 g     F .text	00000148 __multadd
0200f09c g     F .text	00000028 _Bfree



Disassembly of section .exceptions:

02000020 <save_context>:
# Entry point for exceptions.
.section .exceptions.entry, "xa"		

# Save the entire context of a task.
save_context:
	addi	ea, ea, -4			# Point to the next instruction.
 2000020:	ef7fff04 	addi	ea,ea,-4
	addi	sp,	sp, -116		# Create space on the stack.
 2000024:	deffe304 	addi	sp,sp,-116
	stw		ra, 0(sp)
 2000028:	dfc00015 	stw	ra,0(sp)
								# Leave a gap for muldiv 0
	stw		at, 8(sp)		 
 200002c:	d8400215 	stw	at,8(sp)
	stw		r2, 12(sp)
 2000030:	d8800315 	stw	r2,12(sp)
	stw		r3, 16(sp)
 2000034:	d8c00415 	stw	r3,16(sp)
	stw		r4, 20(sp)
 2000038:	d9000515 	stw	r4,20(sp)
	stw		r5, 24(sp) 
 200003c:	d9400615 	stw	r5,24(sp)
	stw		r6, 28(sp) 
 2000040:	d9800715 	stw	r6,28(sp)
	stw		r7, 32(sp) 
 2000044:	d9c00815 	stw	r7,32(sp)
	stw		r8, 36(sp) 
 2000048:	da000915 	stw	r8,36(sp)
	stw		r9, 40(sp) 
 200004c:	da400a15 	stw	r9,40(sp)
	stw		r10, 44(sp)
 2000050:	da800b15 	stw	r10,44(sp)
	stw		r11, 48(sp)
 2000054:	dac00c15 	stw	r11,48(sp)
	stw		r12, 52(sp)
 2000058:	db000d15 	stw	r12,52(sp)
	stw		r13, 56(sp)
 200005c:	db400e15 	stw	r13,56(sp)
	stw		r14, 60(sp)
 2000060:	db800f15 	stw	r14,60(sp)
	stw		r15, 64(sp)
 2000064:	dbc01015 	stw	r15,64(sp)
	rdctl	r5, estatus 		# Save the eStatus
 2000068:	000b307a 	rdctl	r5,estatus
	stw		r5, 68(sp)
 200006c:	d9401115 	stw	r5,68(sp)
	stw		ea, 72(sp)			# Save the PC
 2000070:	df401215 	stw	ea,72(sp)
	stw		r16, 76(sp)			# Save the remaining registers
 2000074:	dc001315 	stw	r16,76(sp)
	stw		r17, 80(sp)
 2000078:	dc401415 	stw	r17,80(sp)
	stw		r18, 84(sp)
 200007c:	dc801515 	stw	r18,84(sp)
	stw		r19, 88(sp)
 2000080:	dcc01615 	stw	r19,88(sp)
	stw		r20, 92(sp)
 2000084:	dd001715 	stw	r20,92(sp)
	stw		r21, 96(sp)
 2000088:	dd401815 	stw	r21,96(sp)
	stw		r22, 100(sp)
 200008c:	dd801915 	stw	r22,100(sp)
	stw		r23, 104(sp)
 2000090:	ddc01a15 	stw	r23,104(sp)
	stw		gp, 108(sp)
 2000094:	de801b15 	stw	gp,108(sp)
	stw		fp, 112(sp)
 2000098:	df001c15 	stw	fp,112(sp)

0200009c <save_sp_to_pxCurrentTCB>:
 200009c:	060080b4 	movhi	et,514

save_sp_to_pxCurrentTCB:
	movia	et, pxCurrentTCB	# Load the address of the pxCurrentTCB pointer
 20000a0:	c62ffb04 	addi	et,et,-16404
	ldw		et, (et)			# Load the value of the pxCurrentTCB pointer
 20000a4:	c6000017 	ldw	et,0(et)
	stw		sp, (et)			# Store the stack pointer into the top of the TCB
 20000a8:	c6c00015 	stw	sp,0(et)

020000ac <hw_irq_test>:
hw_irq_test:
	/*
     * Test to see if the exception was a software exception or caused 
     * by an external interrupt, and vector accordingly.
     */
    rdctl	r4, ipending		# Load the Pending Interrupts indication
 20000ac:	0009313a 	rdctl	r4,ipending
	rdctl	r5, estatus 		# Load the eStatus (enabled interrupts).
 20000b0:	000b307a 	rdctl	r5,estatus
    andi	r2, r5, 1			# Are interrupts enabled globally.
 20000b4:	2880004c 	andi	r2,r5,1
    beq		r2, zero, soft_exceptions		# Interrupts are not enabled.
 20000b8:	10002526 	beq	r2,zero,2000150 <soft_exceptions>
    beq		r4, zero, soft_exceptions		# There are no interrupts triggered.
 20000bc:	20002426 	beq	r4,zero,2000150 <soft_exceptions>

020000c0 <hw_irq_handler>:

	.section .exceptions.irqhandler, "xa"
hw_irq_handler:
	call	alt_irq_handler					# Call the alt_irq_handler to deliver to the registered interrupt handler.
 20000c0:	200017c0 	call	200017c <alt_irq_handler>

020000c4 <restore_sp_from_pxCurrentTCB>:
 20000c4:	060080b4 	movhi	et,514

    .section .exceptions.irqreturn, "xa"
restore_sp_from_pxCurrentTCB:
	movia	et, pxCurrentTCB		# Load the address of the pxCurrentTCB pointer
 20000c8:	c62ffb04 	addi	et,et,-16404
	ldw		et, (et)				# Load the value of the pxCurrentTCB pointer
 20000cc:	c6000017 	ldw	et,0(et)
	ldw		sp, (et)				# Load the stack pointer with the top value of the TCB
 20000d0:	c6c00017 	ldw	sp,0(et)

020000d4 <restore_context>:

restore_context:
	ldw		ra, 0(sp)		# Restore the registers.
 20000d4:	dfc00017 	ldw	ra,0(sp)
							# Leave a gap for muldiv 0.
	ldw		at, 8(sp)
 20000d8:	d8400217 	ldw	at,8(sp)
	ldw		r2, 12(sp)
 20000dc:	d8800317 	ldw	r2,12(sp)
	ldw		r3, 16(sp)
 20000e0:	d8c00417 	ldw	r3,16(sp)
	ldw		r4, 20(sp)
 20000e4:	d9000517 	ldw	r4,20(sp)
	ldw		r5, 24(sp) 
 20000e8:	d9400617 	ldw	r5,24(sp)
	ldw		r6, 28(sp) 
 20000ec:	d9800717 	ldw	r6,28(sp)
	ldw		r7, 32(sp) 
 20000f0:	d9c00817 	ldw	r7,32(sp)
	ldw		r8, 36(sp) 
 20000f4:	da000917 	ldw	r8,36(sp)
	ldw		r9, 40(sp) 
 20000f8:	da400a17 	ldw	r9,40(sp)
	ldw		r10, 44(sp)
 20000fc:	da800b17 	ldw	r10,44(sp)
	ldw		r11, 48(sp)
 2000100:	dac00c17 	ldw	r11,48(sp)
	ldw		r12, 52(sp)
 2000104:	db000d17 	ldw	r12,52(sp)
	ldw		r13, 56(sp)
 2000108:	db400e17 	ldw	r13,56(sp)
	ldw		r14, 60(sp)
 200010c:	db800f17 	ldw	r14,60(sp)
	ldw		r15, 64(sp)
 2000110:	dbc01017 	ldw	r15,64(sp)
	ldw		et, 68(sp)		# Load the eStatus
 2000114:	de001117 	ldw	et,68(sp)
	wrctl	estatus, et 	# Write the eStatus
 2000118:	c001707a 	wrctl	estatus,et
	ldw		ea, 72(sp)		# Load the Program Counter
 200011c:	df401217 	ldw	ea,72(sp)
	ldw		r16, 76(sp)
 2000120:	dc001317 	ldw	r16,76(sp)
	ldw		r17, 80(sp)
 2000124:	dc401417 	ldw	r17,80(sp)
	ldw		r18, 84(sp)
 2000128:	dc801517 	ldw	r18,84(sp)
	ldw		r19, 88(sp)
 200012c:	dcc01617 	ldw	r19,88(sp)
	ldw		r20, 92(sp)
 2000130:	dd001717 	ldw	r20,92(sp)
	ldw		r21, 96(sp)
 2000134:	dd401817 	ldw	r21,96(sp)
	ldw		r22, 100(sp)
 2000138:	dd801917 	ldw	r22,100(sp)
	ldw		r23, 104(sp)
 200013c:	ddc01a17 	ldw	r23,104(sp)
	ldw		gp, 108(sp)
 2000140:	de801b17 	ldw	gp,108(sp)
	ldw		fp, 112(sp)
 2000144:	df001c17 	ldw	fp,112(sp)
	addi	sp,	sp, 116		# Release stack space
 2000148:	dec01d04 	addi	sp,sp,116

    eret					# Return to address ea, loading eStatus into Status.
 200014c:	ef80083a 	eret

02000150 <soft_exceptions>:
   
	.section .exceptions.soft, "xa"
soft_exceptions:
	ldw		et, 0(ea)				# Load the instruction where the interrupt occured.
 2000150:	ee000017 	ldw	et,0(ea)
	movhi	at, %hi(0x003B683A)		# Load the registers with the trap instruction code
 2000154:	00400ef4 	movhi	at,59
	ori		at, at, %lo(0x003B683A)
 2000158:	085a0e94 	ori	at,at,26682
   	cmpne	et, et, at				# Compare the trap instruction code to the last excuted instruction
 200015c:	c070c03a 	cmpne	et,et,at
  	beq		et, r0, call_scheduler	# its a trap so switchcontext
 2000160:	c0000226 	beq	et,zero,200016c <call_scheduler>
  	break							# This is an un-implemented instruction or muldiv problem.
 2000164:	003da03a 	break	0
  	br		restore_context			# its something else
 2000168:	003fda06 	br	20000d4 <restore_context>

0200016c <call_scheduler>:

call_scheduler:
	addi	ea, ea, 4						# A trap was called, increment the program counter so it is not called again.
 200016c:	ef400104 	addi	ea,ea,4
	stw		ea, 72(sp)						# Save the new program counter to the context.
 2000170:	df401215 	stw	ea,72(sp)
	call	vTaskSwitchContext				# Pick the next context.
 2000174:	20067640 	call	2006764 <vTaskSwitchContext>
	br		restore_sp_from_pxCurrentTCB	# Switch in the task context and restore. 
 2000178:	003fd206 	br	20000c4 <restore_sp_from_pxCurrentTCB>

0200017c <alt_irq_handler>:
 * instruction is present if the macro ALT_CI_INTERRUPT_VECTOR defined.
 */

void alt_irq_handler (void) __attribute__ ((section (".exceptions")));
void alt_irq_handler (void)
{
 200017c:	defff904 	addi	sp,sp,-28
 2000180:	dfc00615 	stw	ra,24(sp)
 2000184:	df000515 	stw	fp,20(sp)
 2000188:	df000504 	addi	fp,sp,20
  
  /*
   * Notify the operating system that we are at interrupt level.
   */ 
  
  ALT_OS_INT_ENTER();
 200018c:	0001883a 	nop
#ifndef NIOS2_EIC_PRESENT
static ALT_INLINE alt_u32 ALT_ALWAYS_INLINE alt_irq_pending (void)
{
  alt_u32 active;

  NIOS2_READ_IPENDING (active);
 2000190:	0005313a 	rdctl	r2,ipending
 2000194:	e0bffe15 	stw	r2,-8(fp)

  return active;
 2000198:	e0bffe17 	ldw	r2,-8(fp)
   * Consider the case where the high priority interupt is asserted during
   * the interrupt entry sequence for a lower priority interrupt to see why
   * this is the case.
   */

  active = alt_irq_pending ();
 200019c:	e0bffb15 	stw	r2,-20(fp)

  do
  {
    i = 0;
 20001a0:	e03ffd15 	stw	zero,-12(fp)
    mask = 1;
 20001a4:	00800044 	movi	r2,1
 20001a8:	e0bffc15 	stw	r2,-16(fp)
     * called to clear the interrupt condition.
     */

    do
    {
      if (active & mask)
 20001ac:	e0fffb17 	ldw	r3,-20(fp)
 20001b0:	e0bffc17 	ldw	r2,-16(fp)
 20001b4:	1884703a 	and	r2,r3,r2
 20001b8:	10001426 	beq	r2,zero,200020c <alt_irq_handler+0x90>
      { 
#ifdef ALT_ENHANCED_INTERRUPT_API_PRESENT
        alt_irq[i].handler(alt_irq[i].context); 
 20001bc:	0080a0b4 	movhi	r2,642
 20001c0:	10b05c04 	addi	r2,r2,-16016
 20001c4:	e0fffd17 	ldw	r3,-12(fp)
 20001c8:	180690fa 	slli	r3,r3,3
 20001cc:	10c5883a 	add	r2,r2,r3
 20001d0:	10c00017 	ldw	r3,0(r2)
 20001d4:	0080a0b4 	movhi	r2,642
 20001d8:	10b05c04 	addi	r2,r2,-16016
 20001dc:	e13ffd17 	ldw	r4,-12(fp)
 20001e0:	200890fa 	slli	r4,r4,3
 20001e4:	1105883a 	add	r2,r2,r4
 20001e8:	10800104 	addi	r2,r2,4
 20001ec:	10800017 	ldw	r2,0(r2)
 20001f0:	1009883a 	mov	r4,r2
 20001f4:	183ee83a 	callr	r3
#else
        alt_irq[i].handler(alt_irq[i].context, i); 
#endif
        break;
 20001f8:	0001883a 	nop
#ifndef NIOS2_EIC_PRESENT
static ALT_INLINE alt_u32 ALT_ALWAYS_INLINE alt_irq_pending (void)
{
  alt_u32 active;

  NIOS2_READ_IPENDING (active);
 20001fc:	0005313a 	rdctl	r2,ipending
 2000200:	e0bfff15 	stw	r2,-4(fp)

  return active;
 2000204:	e0bfff17 	ldw	r2,-4(fp)
 2000208:	00000706 	br	2000228 <alt_irq_handler+0xac>
      }
      mask <<= 1;
 200020c:	e0bffc17 	ldw	r2,-16(fp)
 2000210:	1085883a 	add	r2,r2,r2
 2000214:	e0bffc15 	stw	r2,-16(fp)
      i++;
 2000218:	e0bffd17 	ldw	r2,-12(fp)
 200021c:	10800044 	addi	r2,r2,1
 2000220:	e0bffd15 	stw	r2,-12(fp)

    } while (1);
 2000224:	003fe106 	br	20001ac <alt_irq_handler+0x30>

    active = alt_irq_pending ();
 2000228:	e0bffb15 	stw	r2,-20(fp)
    
  } while (active);
 200022c:	e0bffb17 	ldw	r2,-20(fp)
 2000230:	103fdb1e 	bne	r2,zero,20001a0 <alt_irq_handler+0x24>

  /*
   * Notify the operating system that interrupt processing is complete.
   */ 

  ALT_OS_INT_EXIT();
 2000234:	0001883a 	nop
}
 2000238:	0001883a 	nop
 200023c:	e037883a 	mov	sp,fp
 2000240:	dfc00117 	ldw	ra,4(sp)
 2000244:	df000017 	ldw	fp,0(sp)
 2000248:	dec00204 	addi	sp,sp,8
 200024c:	f800283a 	ret

Disassembly of section .text:

02000250 <_start>:

    /*
     * Now that the caches are initialized, set up the stack pointer and global pointer.
     * The values provided by the linker are assumed to be correctly aligned.
     */
    movhi sp, %hi(__alt_stack_pointer)
 2000250:	06c10034 	movhi	sp,1024
    ori sp, sp, %lo(__alt_stack_pointer)
 2000254:	dec00014 	ori	sp,sp,0
    movhi gp, %hi(_gp)
 2000258:	068080b4 	movhi	gp,514
    ori gp, gp, %lo(_gp)
 200025c:	d68f9714 	ori	gp,gp,15964
 */
#ifndef ALT_SIM_OPTIMIZE
    /* Log that the BSS is about to be cleared. */
    ALT_LOG_PUTS(alt_log_msg_bss)

    movhi r2, %hi(__bss_start)
 2000260:	00808074 	movhi	r2,513
    ori r2, r2, %lo(__bss_start)
 2000264:	10afad14 	ori	r2,r2,48820

    movhi r3, %hi(__bss_end)
 2000268:	00c0a074 	movhi	r3,641
    ori r3, r3, %lo(__bss_end)
 200026c:	18f09c14 	ori	r3,r3,49776

    beq r2, r3, 1f
 2000270:	10c00326 	beq	r2,r3,2000280 <_start+0x30>

0:
    stw zero, (r2)
 2000274:	10000015 	stw	zero,0(r2)
    addi r2, r2, 4
 2000278:	10800104 	addi	r2,r2,4
    bltu r2, r3, 0b
 200027c:	10fffd36 	bltu	r2,r3,2000274 <_start+0x24>

    /* Log that alt_main is about to be called. */
    ALT_LOG_PUTS(alt_log_msg_alt_main)

    /* Call the C entry point. It should never return. */
    call alt_main
 2000280:	20160280 	call	2016028 <alt_main>

02000284 <alt_after_alt_main>:

    /* Wait in infinite loop in case alt_main does return. */
alt_after_alt_main:
    br alt_after_alt_main
 2000284:	003fff06 	br	2000284 <alt_after_alt_main>

02000288 <vStartBlockingQueueTasks>:
static volatile short sBlockingProducerCount[ blckqNUM_TASK_SETS ] = { ( uint16_t ) 0, ( uint16_t ) 0, ( uint16_t ) 0 };

/*-----------------------------------------------------------*/

void vStartBlockingQueueTasks( UBaseType_t uxPriority )
{
 2000288:	defff104 	addi	sp,sp,-60
 200028c:	dfc00e15 	stw	ra,56(sp)
 2000290:	df000d15 	stw	fp,52(sp)
 2000294:	df000d04 	addi	fp,sp,52
 2000298:	e13fff15 	stw	r4,-4(fp)
xBlockingQueueParameters *pxQueueParameters1, *pxQueueParameters2;
xBlockingQueueParameters *pxQueueParameters3, *pxQueueParameters4;
xBlockingQueueParameters *pxQueueParameters5, *pxQueueParameters6;
const UBaseType_t uxQueueSize1 = 1, uxQueueSize5 = 5;
 200029c:	00800044 	movi	r2,1
 20002a0:	e0bff515 	stw	r2,-44(fp)
 20002a4:	00800144 	movi	r2,5
 20002a8:	e0bff615 	stw	r2,-40(fp)
const TickType_t xBlockTime = pdMS_TO_TICKS( ( TickType_t ) 1000 );
 20002ac:	0080fa04 	movi	r2,1000
 20002b0:	e0bff715 	stw	r2,-36(fp)
const TickType_t xDontBlock = ( TickType_t ) 0;
 20002b4:	e03ff815 	stw	zero,-32(fp)

	/* Create the first two tasks as described at the top of the file. */

	/* First create the structure used to pass parameters to the consumer tasks. */
	pxQueueParameters1 = ( xBlockingQueueParameters * ) pvPortMalloc( sizeof( xBlockingQueueParameters ) );
 20002b8:	01000304 	movi	r4,12
 20002bc:	2003f040 	call	2003f04 <pvPortMalloc>
 20002c0:	e0bff915 	stw	r2,-28(fp)

	/* Create the queue used by the first two tasks to pass the incrementing number.
	Pass a pointer to the queue in the parameter structure. */
	pxQueueParameters1->xQueue = xQueueCreate( uxQueueSize1, ( UBaseType_t ) sizeof( uint16_t ) );
 20002c4:	000d883a 	mov	r6,zero
 20002c8:	01400084 	movi	r5,2
 20002cc:	e13ff517 	ldw	r4,-44(fp)
 20002d0:	20043840 	call	2004384 <xQueueGenericCreate>
 20002d4:	1007883a 	mov	r3,r2
 20002d8:	e0bff917 	ldw	r2,-28(fp)
 20002dc:	10c00015 	stw	r3,0(r2)

	/* The consumer is created first so gets a block time as described above. */
	pxQueueParameters1->xBlockTime = xBlockTime;
 20002e0:	e0bff917 	ldw	r2,-28(fp)
 20002e4:	e0fff717 	ldw	r3,-36(fp)
 20002e8:	10c00115 	stw	r3,4(r2)

	/* Pass in the variable that this task is going to increment so we can check it
	is still running. */
	pxQueueParameters1->psCheckVariable = &( sBlockingConsumerCount[ 0 ] );
 20002ec:	e0bff917 	ldw	r2,-28(fp)
 20002f0:	d0e01604 	addi	r3,gp,-32680
 20002f4:	10c00215 	stw	r3,8(r2)

	/* Create the structure used to pass parameters to the producer task. */
	pxQueueParameters2 = ( xBlockingQueueParameters * ) pvPortMalloc( sizeof( xBlockingQueueParameters ) );
 20002f8:	01000304 	movi	r4,12
 20002fc:	2003f040 	call	2003f04 <pvPortMalloc>
 2000300:	e0bffa15 	stw	r2,-24(fp)

	/* Pass the queue to this task also, using the parameter structure. */
	pxQueueParameters2->xQueue = pxQueueParameters1->xQueue;
 2000304:	e0bff917 	ldw	r2,-28(fp)
 2000308:	10c00017 	ldw	r3,0(r2)
 200030c:	e0bffa17 	ldw	r2,-24(fp)
 2000310:	10c00015 	stw	r3,0(r2)

	/* The producer is not going to block - as soon as it posts the consumer will
	wake and remove the item so the producer should always have room to post. */
	pxQueueParameters2->xBlockTime = xDontBlock;
 2000314:	e0bffa17 	ldw	r2,-24(fp)
 2000318:	e0fff817 	ldw	r3,-32(fp)
 200031c:	10c00115 	stw	r3,4(r2)

	/* Pass in the variable that this task is going to increment so we can check
	it is still running. */
	pxQueueParameters2->psCheckVariable = &( sBlockingProducerCount[ 0 ] );
 2000320:	e0bffa17 	ldw	r2,-24(fp)
 2000324:	d0e01784 	addi	r3,gp,-32674
 2000328:	10c00215 	stw	r3,8(r2)


	/* Note the producer has a lower priority than the consumer when the tasks are
	spawned. */
	xTaskCreate( vBlockingQueueConsumer, "QConsB1", blckqSTACK_SIZE, ( void * ) pxQueueParameters1, uxPriority, NULL );
 200032c:	d8000115 	stw	zero,4(sp)
 2000330:	e0bfff17 	ldw	r2,-4(fp)
 2000334:	d8800015 	stw	r2,0(sp)
 2000338:	e1fff917 	ldw	r7,-28(fp)
 200033c:	01810004 	movi	r6,1024
 2000340:	014080b4 	movhi	r5,514
 2000344:	29671504 	addi	r5,r5,-25516
 2000348:	01008034 	movhi	r4,512
 200034c:	21016604 	addi	r4,r4,1432
 2000350:	20056e40 	call	20056e4 <xTaskCreate>
	xTaskCreate( vBlockingQueueProducer, "QProdB2", blckqSTACK_SIZE, ( void * ) pxQueueParameters2, tskIDLE_PRIORITY, NULL );
 2000354:	d8000115 	stw	zero,4(sp)
 2000358:	d8000015 	stw	zero,0(sp)
 200035c:	e1fffa17 	ldw	r7,-24(fp)
 2000360:	01810004 	movi	r6,1024
 2000364:	014080b4 	movhi	r5,514
 2000368:	29671704 	addi	r5,r5,-25508
 200036c:	01008034 	movhi	r4,512
 2000370:	21014304 	addi	r4,r4,1292
 2000374:	20056e40 	call	20056e4 <xTaskCreate>


	/* Create the second two tasks as described at the top of the file.   This uses
	the same mechanism but reverses the task priorities. */

	pxQueueParameters3 = ( xBlockingQueueParameters * ) pvPortMalloc( sizeof( xBlockingQueueParameters ) );
 2000378:	01000304 	movi	r4,12
 200037c:	2003f040 	call	2003f04 <pvPortMalloc>
 2000380:	e0bffb15 	stw	r2,-20(fp)
	pxQueueParameters3->xQueue = xQueueCreate( uxQueueSize1, ( UBaseType_t ) sizeof( uint16_t ) );
 2000384:	000d883a 	mov	r6,zero
 2000388:	01400084 	movi	r5,2
 200038c:	e13ff517 	ldw	r4,-44(fp)
 2000390:	20043840 	call	2004384 <xQueueGenericCreate>
 2000394:	1007883a 	mov	r3,r2
 2000398:	e0bffb17 	ldw	r2,-20(fp)
 200039c:	10c00015 	stw	r3,0(r2)
	pxQueueParameters3->xBlockTime = xDontBlock;
 20003a0:	e0bffb17 	ldw	r2,-20(fp)
 20003a4:	e0fff817 	ldw	r3,-32(fp)
 20003a8:	10c00115 	stw	r3,4(r2)
	pxQueueParameters3->psCheckVariable = &( sBlockingProducerCount[ 1 ] );
 20003ac:	e0bffb17 	ldw	r2,-20(fp)
 20003b0:	d0e01804 	addi	r3,gp,-32672
 20003b4:	10c00215 	stw	r3,8(r2)

	pxQueueParameters4 = ( xBlockingQueueParameters * ) pvPortMalloc( sizeof( xBlockingQueueParameters ) );
 20003b8:	01000304 	movi	r4,12
 20003bc:	2003f040 	call	2003f04 <pvPortMalloc>
 20003c0:	e0bffc15 	stw	r2,-16(fp)
	pxQueueParameters4->xQueue = pxQueueParameters3->xQueue;
 20003c4:	e0bffb17 	ldw	r2,-20(fp)
 20003c8:	10c00017 	ldw	r3,0(r2)
 20003cc:	e0bffc17 	ldw	r2,-16(fp)
 20003d0:	10c00015 	stw	r3,0(r2)
	pxQueueParameters4->xBlockTime = xBlockTime;
 20003d4:	e0bffc17 	ldw	r2,-16(fp)
 20003d8:	e0fff717 	ldw	r3,-36(fp)
 20003dc:	10c00115 	stw	r3,4(r2)
	pxQueueParameters4->psCheckVariable = &( sBlockingConsumerCount[ 1 ] );
 20003e0:	e0bffc17 	ldw	r2,-16(fp)
 20003e4:	d0e01684 	addi	r3,gp,-32678
 20003e8:	10c00215 	stw	r3,8(r2)

	xTaskCreate( vBlockingQueueConsumer, "QConsB3", blckqSTACK_SIZE, ( void * ) pxQueueParameters3, tskIDLE_PRIORITY, NULL );
 20003ec:	d8000115 	stw	zero,4(sp)
 20003f0:	d8000015 	stw	zero,0(sp)
 20003f4:	e1fffb17 	ldw	r7,-20(fp)
 20003f8:	01810004 	movi	r6,1024
 20003fc:	014080b4 	movhi	r5,514
 2000400:	29671904 	addi	r5,r5,-25500
 2000404:	01008034 	movhi	r4,512
 2000408:	21016604 	addi	r4,r4,1432
 200040c:	20056e40 	call	20056e4 <xTaskCreate>
	xTaskCreate( vBlockingQueueProducer, "QProdB4", blckqSTACK_SIZE, ( void * ) pxQueueParameters4, uxPriority, NULL );
 2000410:	d8000115 	stw	zero,4(sp)
 2000414:	e0bfff17 	ldw	r2,-4(fp)
 2000418:	d8800015 	stw	r2,0(sp)
 200041c:	e1fffc17 	ldw	r7,-16(fp)
 2000420:	01810004 	movi	r6,1024
 2000424:	014080b4 	movhi	r5,514
 2000428:	29671b04 	addi	r5,r5,-25492
 200042c:	01008034 	movhi	r4,512
 2000430:	21014304 	addi	r4,r4,1292
 2000434:	20056e40 	call	20056e4 <xTaskCreate>



	/* Create the last two tasks as described above.  The mechanism is again just
	the same.  This time both parameter structures are given a block time. */
	pxQueueParameters5 = ( xBlockingQueueParameters * ) pvPortMalloc( sizeof( xBlockingQueueParameters ) );
 2000438:	01000304 	movi	r4,12
 200043c:	2003f040 	call	2003f04 <pvPortMalloc>
 2000440:	e0bffd15 	stw	r2,-12(fp)
	pxQueueParameters5->xQueue = xQueueCreate( uxQueueSize5, ( UBaseType_t ) sizeof( uint16_t ) );
 2000444:	000d883a 	mov	r6,zero
 2000448:	01400084 	movi	r5,2
 200044c:	e13ff617 	ldw	r4,-40(fp)
 2000450:	20043840 	call	2004384 <xQueueGenericCreate>
 2000454:	1007883a 	mov	r3,r2
 2000458:	e0bffd17 	ldw	r2,-12(fp)
 200045c:	10c00015 	stw	r3,0(r2)
	pxQueueParameters5->xBlockTime = xBlockTime;
 2000460:	e0bffd17 	ldw	r2,-12(fp)
 2000464:	e0fff717 	ldw	r3,-36(fp)
 2000468:	10c00115 	stw	r3,4(r2)
	pxQueueParameters5->psCheckVariable = &( sBlockingProducerCount[ 2 ] );
 200046c:	e0bffd17 	ldw	r2,-12(fp)
 2000470:	d0e01884 	addi	r3,gp,-32670
 2000474:	10c00215 	stw	r3,8(r2)

	pxQueueParameters6 = ( xBlockingQueueParameters * ) pvPortMalloc( sizeof( xBlockingQueueParameters ) );
 2000478:	01000304 	movi	r4,12
 200047c:	2003f040 	call	2003f04 <pvPortMalloc>
 2000480:	e0bffe15 	stw	r2,-8(fp)
	pxQueueParameters6->xQueue = pxQueueParameters5->xQueue;
 2000484:	e0bffd17 	ldw	r2,-12(fp)
 2000488:	10c00017 	ldw	r3,0(r2)
 200048c:	e0bffe17 	ldw	r2,-8(fp)
 2000490:	10c00015 	stw	r3,0(r2)
	pxQueueParameters6->xBlockTime = xBlockTime;
 2000494:	e0bffe17 	ldw	r2,-8(fp)
 2000498:	e0fff717 	ldw	r3,-36(fp)
 200049c:	10c00115 	stw	r3,4(r2)
	pxQueueParameters6->psCheckVariable = &( sBlockingConsumerCount[ 2 ] );
 20004a0:	e0bffe17 	ldw	r2,-8(fp)
 20004a4:	d0e01704 	addi	r3,gp,-32676
 20004a8:	10c00215 	stw	r3,8(r2)

	xTaskCreate( vBlockingQueueProducer, "QProdB5", blckqSTACK_SIZE, ( void * ) pxQueueParameters5, tskIDLE_PRIORITY, NULL );
 20004ac:	d8000115 	stw	zero,4(sp)
 20004b0:	d8000015 	stw	zero,0(sp)
 20004b4:	e1fffd17 	ldw	r7,-12(fp)
 20004b8:	01810004 	movi	r6,1024
 20004bc:	014080b4 	movhi	r5,514
 20004c0:	29671d04 	addi	r5,r5,-25484
 20004c4:	01008034 	movhi	r4,512
 20004c8:	21014304 	addi	r4,r4,1292
 20004cc:	20056e40 	call	20056e4 <xTaskCreate>
	xTaskCreate( vBlockingQueueConsumer, "QConsB6", blckqSTACK_SIZE, ( void * ) pxQueueParameters6, tskIDLE_PRIORITY, NULL );
 20004d0:	d8000115 	stw	zero,4(sp)
 20004d4:	d8000015 	stw	zero,0(sp)
 20004d8:	e1fffe17 	ldw	r7,-8(fp)
 20004dc:	01810004 	movi	r6,1024
 20004e0:	014080b4 	movhi	r5,514
 20004e4:	29671f04 	addi	r5,r5,-25476
 20004e8:	01008034 	movhi	r4,512
 20004ec:	21016604 	addi	r4,r4,1432
 20004f0:	20056e40 	call	20056e4 <xTaskCreate>
}
 20004f4:	0001883a 	nop
 20004f8:	e037883a 	mov	sp,fp
 20004fc:	dfc00117 	ldw	ra,4(sp)
 2000500:	df000017 	ldw	fp,0(sp)
 2000504:	dec00204 	addi	sp,sp,8
 2000508:	f800283a 	ret

0200050c <vBlockingQueueProducer>:
/*-----------------------------------------------------------*/

static portTASK_FUNCTION( vBlockingQueueProducer, pvParameters )
{
 200050c:	defffa04 	addi	sp,sp,-24
 2000510:	dfc00515 	stw	ra,20(sp)
 2000514:	df000415 	stw	fp,16(sp)
 2000518:	df000404 	addi	fp,sp,16
 200051c:	e13fff15 	stw	r4,-4(fp)
uint16_t usValue = 0;
 2000520:	e03ffe0d 	sth	zero,-8(fp)
xBlockingQueueParameters *pxQueueParameters;
short sErrorEverOccurred = pdFALSE;
 2000524:	e03ffc0d 	sth	zero,-16(fp)

	pxQueueParameters = ( xBlockingQueueParameters * ) pvParameters;
 2000528:	e0bfff17 	ldw	r2,-4(fp)
 200052c:	e0bffd15 	stw	r2,-12(fp)

	for( ;; )
	{
		if( xQueueSend( pxQueueParameters->xQueue, ( void * ) &usValue, pxQueueParameters->xBlockTime ) != pdPASS )
 2000530:	e0bffd17 	ldw	r2,-12(fp)
 2000534:	10c00017 	ldw	r3,0(r2)
 2000538:	e0bffd17 	ldw	r2,-12(fp)
 200053c:	11000117 	ldw	r4,4(r2)
 2000540:	e0bffe04 	addi	r2,fp,-8
 2000544:	000f883a 	mov	r7,zero
 2000548:	200d883a 	mov	r6,r4
 200054c:	100b883a 	mov	r5,r2
 2000550:	1809883a 	mov	r4,r3
 2000554:	20046f00 	call	20046f0 <xQueueGenericSend>
 2000558:	10800060 	cmpeqi	r2,r2,1
 200055c:	1000031e 	bne	r2,zero,200056c <vBlockingQueueProducer+0x60>
		{
			sErrorEverOccurred = pdTRUE;
 2000560:	00800044 	movi	r2,1
 2000564:	e0bffc0d 	sth	r2,-16(fp)
 2000568:	003ff106 	br	2000530 <vBlockingQueueProducer+0x24>
		}
		else
		{
			/* We have successfully posted a message, so increment the variable
			used to check we are still running. */
			if( sErrorEverOccurred == pdFALSE )
 200056c:	e0bffc0f 	ldh	r2,-16(fp)
 2000570:	1000051e 	bne	r2,zero,2000588 <vBlockingQueueProducer+0x7c>
			{
				( *pxQueueParameters->psCheckVariable )++;
 2000574:	e0bffd17 	ldw	r2,-12(fp)
 2000578:	10800217 	ldw	r2,8(r2)
 200057c:	10c0000b 	ldhu	r3,0(r2)
 2000580:	18c00044 	addi	r3,r3,1
 2000584:	10c0000d 	sth	r3,0(r2)
			}

			/* Increment the variable we are going to post next time round.  The
			consumer will expect the numbers to	follow in numerical order. */
			++usValue;
 2000588:	e0bffe0b 	ldhu	r2,-8(fp)
 200058c:	10800044 	addi	r2,r2,1
 2000590:	e0bffe0d 	sth	r2,-8(fp)

			#if configUSE_PREEMPTION == 0
				taskYIELD();
			#endif
		}
	}
 2000594:	003fe606 	br	2000530 <vBlockingQueueProducer+0x24>

02000598 <vBlockingQueueConsumer>:
}
/*-----------------------------------------------------------*/

static portTASK_FUNCTION( vBlockingQueueConsumer, pvParameters )
{
 2000598:	defffa04 	addi	sp,sp,-24
 200059c:	dfc00515 	stw	ra,20(sp)
 20005a0:	df000415 	stw	fp,16(sp)
 20005a4:	df000404 	addi	fp,sp,16
 20005a8:	e13fff15 	stw	r4,-4(fp)
uint16_t usData, usExpectedValue = 0;
 20005ac:	e03ffc0d 	sth	zero,-16(fp)
xBlockingQueueParameters *pxQueueParameters;
short sErrorEverOccurred = pdFALSE;
 20005b0:	e03ffc8d 	sth	zero,-14(fp)

	pxQueueParameters = ( xBlockingQueueParameters * ) pvParameters;
 20005b4:	e0bfff17 	ldw	r2,-4(fp)
 20005b8:	e0bffd15 	stw	r2,-12(fp)

	for( ;; )
	{
		if( xQueueReceive( pxQueueParameters->xQueue, &usData, pxQueueParameters->xBlockTime ) == pdPASS )
 20005bc:	e0bffd17 	ldw	r2,-12(fp)
 20005c0:	10c00017 	ldw	r3,0(r2)
 20005c4:	e0bffd17 	ldw	r2,-12(fp)
 20005c8:	11000117 	ldw	r4,4(r2)
 20005cc:	e0bffe04 	addi	r2,fp,-8
 20005d0:	200d883a 	mov	r6,r4
 20005d4:	100b883a 	mov	r5,r2
 20005d8:	1809883a 	mov	r4,r3
 20005dc:	2004a680 	call	2004a68 <xQueueReceive>
 20005e0:	10800058 	cmpnei	r2,r2,1
 20005e4:	103ff51e 	bne	r2,zero,20005bc <vBlockingQueueConsumer+0x24>
		{
			if( usData != usExpectedValue )
 20005e8:	e0bffe0b 	ldhu	r2,-8(fp)
 20005ec:	10ffffcc 	andi	r3,r2,65535
 20005f0:	e0bffc0b 	ldhu	r2,-16(fp)
 20005f4:	18800526 	beq	r3,r2,200060c <vBlockingQueueConsumer+0x74>
			{
				/* Catch-up. */
				usExpectedValue = usData;
 20005f8:	e0bffe0b 	ldhu	r2,-8(fp)
 20005fc:	e0bffc0d 	sth	r2,-16(fp)

				sErrorEverOccurred = pdTRUE;
 2000600:	00800044 	movi	r2,1
 2000604:	e0bffc8d 	sth	r2,-14(fp)
 2000608:	003fec06 	br	20005bc <vBlockingQueueConsumer+0x24>
			}
			else
			{
				/* We have successfully received a message, so increment the
				variable used to check we are still running. */
				if( sErrorEverOccurred == pdFALSE )
 200060c:	e0bffc8f 	ldh	r2,-14(fp)
 2000610:	1000051e 	bne	r2,zero,2000628 <vBlockingQueueConsumer+0x90>
				{
					( *pxQueueParameters->psCheckVariable )++;
 2000614:	e0bffd17 	ldw	r2,-12(fp)
 2000618:	10800217 	ldw	r2,8(r2)
 200061c:	10c0000b 	ldhu	r3,0(r2)
 2000620:	18c00044 	addi	r3,r3,1
 2000624:	10c0000d 	sth	r3,0(r2)
				}

				/* Increment the value we expect to remove from the queue next time
				round. */
				++usExpectedValue;
 2000628:	e0bffc0b 	ldhu	r2,-16(fp)
 200062c:	10800044 	addi	r2,r2,1
 2000630:	e0bffc0d 	sth	r2,-16(fp)
					taskYIELD();
				}
			}
			#endif
		}
	}
 2000634:	003fe106 	br	20005bc <vBlockingQueueConsumer+0x24>

02000638 <xAreBlockingQueuesStillRunning>:
}
/*-----------------------------------------------------------*/

/* This is called to check that all the created tasks are still running. */
BaseType_t xAreBlockingQueuesStillRunning( void )
{
 2000638:	defffd04 	addi	sp,sp,-12
 200063c:	df000215 	stw	fp,8(sp)
 2000640:	df000204 	addi	fp,sp,8
static short sLastBlockingConsumerCount[ blckqNUM_TASK_SETS ] = { ( uint16_t ) 0, ( uint16_t ) 0, ( uint16_t ) 0 };
static short sLastBlockingProducerCount[ blckqNUM_TASK_SETS ] = { ( uint16_t ) 0, ( uint16_t ) 0, ( uint16_t ) 0 };
BaseType_t xReturn = pdPASS, xTasks;
 2000644:	00800044 	movi	r2,1
 2000648:	e0bffe15 	stw	r2,-8(fp)
	changed or not.

	Loop through each check variable to and return pdFALSE if any are found not
	to have changed since the last call. */

	for( xTasks = 0; xTasks < blckqNUM_TASK_SETS; xTasks++ )
 200064c:	e03fff15 	stw	zero,-4(fp)
 2000650:	00003b06 	br	2000740 <xAreBlockingQueuesStillRunning+0x108>
	{
		if( sBlockingConsumerCount[ xTasks ] == sLastBlockingConsumerCount[ xTasks ]  )
 2000654:	e0bfff17 	ldw	r2,-4(fp)
 2000658:	1087883a 	add	r3,r2,r2
 200065c:	d0a01604 	addi	r2,gp,-32680
 2000660:	1885883a 	add	r2,r3,r2
 2000664:	1100000b 	ldhu	r4,0(r2)
 2000668:	e0bfff17 	ldw	r2,-4(fp)
 200066c:	1087883a 	add	r3,r2,r2
 2000670:	d0a01904 	addi	r2,gp,-32668
 2000674:	1885883a 	add	r2,r3,r2
 2000678:	1080000b 	ldhu	r2,0(r2)
 200067c:	20ffffcc 	andi	r3,r4,65535
 2000680:	18e0001c 	xori	r3,r3,32768
 2000684:	18e00004 	addi	r3,r3,-32768
 2000688:	10bfffcc 	andi	r2,r2,65535
 200068c:	10a0001c 	xori	r2,r2,32768
 2000690:	10a00004 	addi	r2,r2,-32768
 2000694:	1880011e 	bne	r3,r2,200069c <xAreBlockingQueuesStillRunning+0x64>
		{
			xReturn = pdFALSE;
 2000698:	e03ffe15 	stw	zero,-8(fp)
		}
		sLastBlockingConsumerCount[ xTasks ] = sBlockingConsumerCount[ xTasks ];
 200069c:	e0bfff17 	ldw	r2,-4(fp)
 20006a0:	1087883a 	add	r3,r2,r2
 20006a4:	d0a01604 	addi	r2,gp,-32680
 20006a8:	1885883a 	add	r2,r3,r2
 20006ac:	10c0000b 	ldhu	r3,0(r2)
 20006b0:	e0bfff17 	ldw	r2,-4(fp)
 20006b4:	1089883a 	add	r4,r2,r2
 20006b8:	d0a01904 	addi	r2,gp,-32668
 20006bc:	2085883a 	add	r2,r4,r2
 20006c0:	10c0000d 	sth	r3,0(r2)


		if( sBlockingProducerCount[ xTasks ] == sLastBlockingProducerCount[ xTasks ]  )
 20006c4:	e0bfff17 	ldw	r2,-4(fp)
 20006c8:	1087883a 	add	r3,r2,r2
 20006cc:	d0a01784 	addi	r2,gp,-32674
 20006d0:	1885883a 	add	r2,r3,r2
 20006d4:	1100000b 	ldhu	r4,0(r2)
 20006d8:	e0bfff17 	ldw	r2,-4(fp)
 20006dc:	1087883a 	add	r3,r2,r2
 20006e0:	d0a01a84 	addi	r2,gp,-32662
 20006e4:	1885883a 	add	r2,r3,r2
 20006e8:	1080000b 	ldhu	r2,0(r2)
 20006ec:	20ffffcc 	andi	r3,r4,65535
 20006f0:	18e0001c 	xori	r3,r3,32768
 20006f4:	18e00004 	addi	r3,r3,-32768
 20006f8:	10bfffcc 	andi	r2,r2,65535
 20006fc:	10a0001c 	xori	r2,r2,32768
 2000700:	10a00004 	addi	r2,r2,-32768
 2000704:	1880011e 	bne	r3,r2,200070c <xAreBlockingQueuesStillRunning+0xd4>
		{
			xReturn = pdFALSE;
 2000708:	e03ffe15 	stw	zero,-8(fp)
		}
		sLastBlockingProducerCount[ xTasks ] = sBlockingProducerCount[ xTasks ];
 200070c:	e0bfff17 	ldw	r2,-4(fp)
 2000710:	1087883a 	add	r3,r2,r2
 2000714:	d0a01784 	addi	r2,gp,-32674
 2000718:	1885883a 	add	r2,r3,r2
 200071c:	10c0000b 	ldhu	r3,0(r2)
 2000720:	e0bfff17 	ldw	r2,-4(fp)
 2000724:	1089883a 	add	r4,r2,r2
 2000728:	d0a01a84 	addi	r2,gp,-32662
 200072c:	2085883a 	add	r2,r4,r2
 2000730:	10c0000d 	sth	r3,0(r2)
	changed or not.

	Loop through each check variable to and return pdFALSE if any are found not
	to have changed since the last call. */

	for( xTasks = 0; xTasks < blckqNUM_TASK_SETS; xTasks++ )
 2000734:	e0bfff17 	ldw	r2,-4(fp)
 2000738:	10800044 	addi	r2,r2,1
 200073c:	e0bfff15 	stw	r2,-4(fp)
 2000740:	e0bfff17 	ldw	r2,-4(fp)
 2000744:	108000d0 	cmplti	r2,r2,3
 2000748:	103fc21e 	bne	r2,zero,2000654 <xAreBlockingQueuesStillRunning+0x1c>
			xReturn = pdFALSE;
		}
		sLastBlockingProducerCount[ xTasks ] = sBlockingProducerCount[ xTasks ];
	}

	return xReturn;
 200074c:	e0bffe17 	ldw	r2,-8(fp)
}
 2000750:	e037883a 	mov	sp,fp
 2000754:	df000017 	ldw	fp,0(sp)
 2000758:	dec00104 	addi	sp,sp,4
 200075c:	f800283a 	ret

02000760 <vStartGenericQueueTasks>:
static volatile BaseType_t xBlockWasAborted = pdFALSE;

/*-----------------------------------------------------------*/

void vStartGenericQueueTasks( UBaseType_t uxPriority )
{
 2000760:	defff904 	addi	sp,sp,-28
 2000764:	dfc00615 	stw	ra,24(sp)
 2000768:	df000515 	stw	fp,20(sp)
 200076c:	df000504 	addi	fp,sp,20
 2000770:	e13fff15 	stw	r4,-4(fp)
QueueHandle_t xQueue;
SemaphoreHandle_t xMutex;

	/* Create the queue that we are going to use for the
	prvSendFrontAndBackTest demo. */
	xQueue = xQueueCreate( genqQUEUE_LENGTH, sizeof( uint32_t ) );
 2000774:	000d883a 	mov	r6,zero
 2000778:	01400104 	movi	r5,4
 200077c:	01000144 	movi	r4,5
 2000780:	20043840 	call	2004384 <xQueueGenericCreate>
 2000784:	e0bffd15 	stw	r2,-12(fp)

	if( xQueue != NULL )
 2000788:	e0bffd17 	ldw	r2,-12(fp)
 200078c:	10000a26 	beq	r2,zero,20007b8 <vStartGenericQueueTasks+0x58>
		vQueueAddToRegistry( xQueue, "Gen_Queue_Test" );

		/* Create the demo task and pass it the queue just created.  We are
		passing the queue handle by value so it does not matter that it is
		declared on the stack here. */
		xTaskCreate( prvSendFrontAndBackTest, "GenQ", genqGENERIC_QUEUE_TEST_TASK_STACK_SIZE, ( void * ) xQueue, uxPriority, NULL );
 2000790:	d8000115 	stw	zero,4(sp)
 2000794:	e0bfff17 	ldw	r2,-4(fp)
 2000798:	d8800015 	stw	r2,0(sp)
 200079c:	e1fffd17 	ldw	r7,-12(fp)
 20007a0:	01810004 	movi	r6,1024
 20007a4:	014080b4 	movhi	r5,514
 20007a8:	29672104 	addi	r5,r5,-25468
 20007ac:	01008034 	movhi	r4,512
 20007b0:	21021804 	addi	r4,r4,2144
 20007b4:	20056e40 	call	20056e4 <xTaskCreate>
	}

	/* Create the mutex used by the prvMutexTest task. */
	xMutex = xSemaphoreCreateMutex();
 20007b8:	01000044 	movi	r4,1
 20007bc:	20045100 	call	2004510 <xQueueCreateMutex>
 20007c0:	e0bffe15 	stw	r2,-8(fp)

	if( xMutex != NULL )
 20007c4:	e0bffe17 	ldw	r2,-8(fp)
 20007c8:	10001f26 	beq	r2,zero,2000848 <vStartGenericQueueTasks+0xe8>
		vQueueAddToRegistry( ( QueueHandle_t ) xMutex, "Gen_Queue_Mutex" );

		/* Create the mutex demo tasks and pass it the mutex just created.  We
		are passing the mutex handle by value so it does not matter that it is
		declared on the stack here. */
		xTaskCreate( prvLowPriorityMutexTask, "MuLow", genqMUTEX_TEST_TASK_STACK_SIZE, ( void * ) xMutex, genqMUTEX_LOW_PRIORITY, NULL );
 20007cc:	d8000115 	stw	zero,4(sp)
 20007d0:	d8000015 	stw	zero,0(sp)
 20007d4:	e1fffe17 	ldw	r7,-8(fp)
 20007d8:	01810004 	movi	r6,1024
 20007dc:	014080b4 	movhi	r5,514
 20007e0:	29672304 	addi	r5,r5,-25460
 20007e4:	01008034 	movhi	r4,512
 20007e8:	2103eb04 	addi	r4,r4,4012
 20007ec:	20056e40 	call	20056e4 <xTaskCreate>
		xTaskCreate( prvMediumPriorityMutexTask, "MuMed", configMINIMAL_STACK_SIZE, NULL, genqMUTEX_MEDIUM_PRIORITY, &xMediumPriorityMutexTask );
 20007f0:	d0a02104 	addi	r2,gp,-32636
 20007f4:	d8800115 	stw	r2,4(sp)
 20007f8:	00800084 	movi	r2,2
 20007fc:	d8800015 	stw	r2,0(sp)
 2000800:	000f883a 	mov	r7,zero
 2000804:	01810004 	movi	r6,1024
 2000808:	014080b4 	movhi	r5,514
 200080c:	29672504 	addi	r5,r5,-25452
 2000810:	01008034 	movhi	r4,512
 2000814:	21040204 	addi	r4,r4,4104
 2000818:	20056e40 	call	20056e4 <xTaskCreate>
		xTaskCreate( prvHighPriorityMutexTask, "MuHigh", genqMUTEX_TEST_TASK_STACK_SIZE, ( void * ) xMutex, genqMUTEX_HIGH_PRIORITY, &xHighPriorityMutexTask );
 200081c:	d0a02004 	addi	r2,gp,-32640
 2000820:	d8800115 	stw	r2,4(sp)
 2000824:	008000c4 	movi	r2,3
 2000828:	d8800015 	stw	r2,0(sp)
 200082c:	e1fffe17 	ldw	r7,-8(fp)
 2000830:	01810004 	movi	r6,1024
 2000834:	014080b4 	movhi	r5,514
 2000838:	29672704 	addi	r5,r5,-25444
 200083c:	01008034 	movhi	r4,512
 2000840:	21040d04 	addi	r4,r4,4148
 2000844:	20056e40 	call	20056e4 <xTaskCreate>
		{
			xTaskCreate( prvHighPriorityMutexTask, "MuHigh2", configMINIMAL_STACK_SIZE, ( void * ) xMutex, genqMUTEX_MEDIUM_PRIORITY, &xSecondMediumPriorityMutexTask );
		}
		#endif /* INCLUDE_xTaskAbortDelay */
	}
}
 2000848:	0001883a 	nop
 200084c:	e037883a 	mov	sp,fp
 2000850:	dfc00117 	ldw	ra,4(sp)
 2000854:	df000017 	ldw	fp,0(sp)
 2000858:	dec00204 	addi	sp,sp,8
 200085c:	f800283a 	ret

02000860 <prvSendFrontAndBackTest>:
/*-----------------------------------------------------------*/

static void prvSendFrontAndBackTest( void *pvParameters )
{
 2000860:	defff904 	addi	sp,sp,-28
 2000864:	dfc00615 	stw	ra,24(sp)
 2000868:	df000515 	stw	fp,20(sp)
 200086c:	df000504 	addi	fp,sp,20
 2000870:	e13fff15 	stw	r4,-4(fp)

		/* Queue a message for printing to say the task has started. */
		vPrintDisplayMessage( &pcTaskStartMsg );
	#endif

	xQueue = ( QueueHandle_t ) pvParameters;
 2000874:	e0bfff17 	ldw	r2,-4(fp)
 2000878:	e0bffb15 	stw	r2,-20(fp)
	{
		/* The queue is empty, so sending an item to the back of the queue
		should have the same efect as sending it to the front of the queue.

		First send to the front and check everything is as expected. */
		ulLoopCounterSnapshot = ulLoopCounter;
 200087c:	d0a01d17 	ldw	r2,-32652(gp)
 2000880:	e0bffe15 	stw	r2,-8(fp)
		xQueueSendToFront( xQueue, ( void * ) &ulLoopCounterSnapshot, intsemNO_BLOCK );
 2000884:	e0bffe04 	addi	r2,fp,-8
 2000888:	01c00044 	movi	r7,1
 200088c:	000d883a 	mov	r6,zero
 2000890:	100b883a 	mov	r5,r2
 2000894:	e13ffb17 	ldw	r4,-20(fp)
 2000898:	20046f00 	call	20046f0 <xQueueGenericSend>

		if( uxQueueMessagesWaiting( xQueue ) != 1 )
 200089c:	e13ffb17 	ldw	r4,-20(fp)
 20008a0:	20051300 	call	2005130 <uxQueueMessagesWaiting>
 20008a4:	10800060 	cmpeqi	r2,r2,1
 20008a8:	1000021e 	bne	r2,zero,20008b4 <prvSendFrontAndBackTest+0x54>
		{
			xErrorDetected = pdTRUE;
 20008ac:	00800044 	movi	r2,1
 20008b0:	d0a01c15 	stw	r2,-32656(gp)
		}

		if( xQueueReceive( xQueue, ( void * ) &ulData, intsemNO_BLOCK ) != pdPASS )
 20008b4:	e0bffc04 	addi	r2,fp,-16
 20008b8:	000d883a 	mov	r6,zero
 20008bc:	100b883a 	mov	r5,r2
 20008c0:	e13ffb17 	ldw	r4,-20(fp)
 20008c4:	2004a680 	call	2004a68 <xQueueReceive>
 20008c8:	10800060 	cmpeqi	r2,r2,1
 20008cc:	1000021e 	bne	r2,zero,20008d8 <prvSendFrontAndBackTest+0x78>
		{
			xErrorDetected = pdTRUE;
 20008d0:	00800044 	movi	r2,1
 20008d4:	d0a01c15 	stw	r2,-32656(gp)
		}

		/* The data we sent to the queue should equal the data we just received
		from the queue. */
		if( ulLoopCounter != ulData )
 20008d8:	d0e01d17 	ldw	r3,-32652(gp)
 20008dc:	e0bffc17 	ldw	r2,-16(fp)
 20008e0:	18800226 	beq	r3,r2,20008ec <prvSendFrontAndBackTest+0x8c>
		{
			xErrorDetected = pdTRUE;
 20008e4:	00800044 	movi	r2,1
 20008e8:	d0a01c15 	stw	r2,-32656(gp)
		}

		/* Then do the same, sending the data to the back, checking everything
		is as expected. */
		if( uxQueueMessagesWaiting( xQueue ) != 0 )
 20008ec:	e13ffb17 	ldw	r4,-20(fp)
 20008f0:	20051300 	call	2005130 <uxQueueMessagesWaiting>
 20008f4:	10000226 	beq	r2,zero,2000900 <prvSendFrontAndBackTest+0xa0>
		{
			xErrorDetected = pdTRUE;
 20008f8:	00800044 	movi	r2,1
 20008fc:	d0a01c15 	stw	r2,-32656(gp)
		}

		ulLoopCounterSnapshot = ulLoopCounter;
 2000900:	d0a01d17 	ldw	r2,-32652(gp)
 2000904:	e0bffe15 	stw	r2,-8(fp)
		xQueueSendToBack( xQueue, ( void * ) &ulLoopCounterSnapshot, intsemNO_BLOCK );
 2000908:	e0bffe04 	addi	r2,fp,-8
 200090c:	000f883a 	mov	r7,zero
 2000910:	000d883a 	mov	r6,zero
 2000914:	100b883a 	mov	r5,r2
 2000918:	e13ffb17 	ldw	r4,-20(fp)
 200091c:	20046f00 	call	20046f0 <xQueueGenericSend>

		if( uxQueueMessagesWaiting( xQueue ) != 1 )
 2000920:	e13ffb17 	ldw	r4,-20(fp)
 2000924:	20051300 	call	2005130 <uxQueueMessagesWaiting>
 2000928:	10800060 	cmpeqi	r2,r2,1
 200092c:	1000021e 	bne	r2,zero,2000938 <prvSendFrontAndBackTest+0xd8>
		{
			xErrorDetected = pdTRUE;
 2000930:	00800044 	movi	r2,1
 2000934:	d0a01c15 	stw	r2,-32656(gp)
		}

		if( xQueueReceive( xQueue, ( void * ) &ulData, intsemNO_BLOCK ) != pdPASS )
 2000938:	e0bffc04 	addi	r2,fp,-16
 200093c:	000d883a 	mov	r6,zero
 2000940:	100b883a 	mov	r5,r2
 2000944:	e13ffb17 	ldw	r4,-20(fp)
 2000948:	2004a680 	call	2004a68 <xQueueReceive>
 200094c:	10800060 	cmpeqi	r2,r2,1
 2000950:	1000021e 	bne	r2,zero,200095c <prvSendFrontAndBackTest+0xfc>
		{
			xErrorDetected = pdTRUE;
 2000954:	00800044 	movi	r2,1
 2000958:	d0a01c15 	stw	r2,-32656(gp)
		}

		if( uxQueueMessagesWaiting( xQueue ) != 0 )
 200095c:	e13ffb17 	ldw	r4,-20(fp)
 2000960:	20051300 	call	2005130 <uxQueueMessagesWaiting>
 2000964:	10000226 	beq	r2,zero,2000970 <prvSendFrontAndBackTest+0x110>
		{
			xErrorDetected = pdTRUE;
 2000968:	00800044 	movi	r2,1
 200096c:	d0a01c15 	stw	r2,-32656(gp)
		}

		/* The data sent to the queue should equal the data just received from
		the queue. */
		if( ulLoopCounter != ulData )
 2000970:	d0e01d17 	ldw	r3,-32652(gp)
 2000974:	e0bffc17 	ldw	r2,-16(fp)
 2000978:	18800226 	beq	r3,r2,2000984 <prvSendFrontAndBackTest+0x124>
		{
			xErrorDetected = pdTRUE;
 200097c:	00800044 	movi	r2,1
 2000980:	d0a01c15 	stw	r2,-32656(gp)
		#endif



		/* Place 2, 3, 4 into the queue, adding items to the back of the queue. */
		for( ulData = 2; ulData < 5; ulData++ )
 2000984:	00800084 	movi	r2,2
 2000988:	e0bffc15 	stw	r2,-16(fp)
 200098c:	00000906 	br	20009b4 <prvSendFrontAndBackTest+0x154>
		{
			xQueueSendToBack( xQueue, ( void * ) &ulData, intsemNO_BLOCK );
 2000990:	e0bffc04 	addi	r2,fp,-16
 2000994:	000f883a 	mov	r7,zero
 2000998:	000d883a 	mov	r6,zero
 200099c:	100b883a 	mov	r5,r2
 20009a0:	e13ffb17 	ldw	r4,-20(fp)
 20009a4:	20046f00 	call	20046f0 <xQueueGenericSend>
		#endif



		/* Place 2, 3, 4 into the queue, adding items to the back of the queue. */
		for( ulData = 2; ulData < 5; ulData++ )
 20009a8:	e0bffc17 	ldw	r2,-16(fp)
 20009ac:	10800044 	addi	r2,r2,1
 20009b0:	e0bffc15 	stw	r2,-16(fp)
 20009b4:	e0bffc17 	ldw	r2,-16(fp)
 20009b8:	10800170 	cmpltui	r2,r2,5
 20009bc:	103ff41e 	bne	r2,zero,2000990 <prvSendFrontAndBackTest+0x130>
			xQueueSendToBack( xQueue, ( void * ) &ulData, intsemNO_BLOCK );
		}

		/* Now the order in the queue should be 2, 3, 4, with 2 being the first
		thing to be read out.  Now add 1 then 0 to the front of the queue. */
		if( uxQueueMessagesWaiting( xQueue ) != 3 )
 20009c0:	e13ffb17 	ldw	r4,-20(fp)
 20009c4:	20051300 	call	2005130 <uxQueueMessagesWaiting>
 20009c8:	108000e0 	cmpeqi	r2,r2,3
 20009cc:	1000021e 	bne	r2,zero,20009d8 <prvSendFrontAndBackTest+0x178>
		{
			xErrorDetected = pdTRUE;
 20009d0:	00800044 	movi	r2,1
 20009d4:	d0a01c15 	stw	r2,-32656(gp)
		}
		ulData = 1;
 20009d8:	00800044 	movi	r2,1
 20009dc:	e0bffc15 	stw	r2,-16(fp)
		xQueueSendToFront( xQueue, ( void * ) &ulData, intsemNO_BLOCK );
 20009e0:	e0bffc04 	addi	r2,fp,-16
 20009e4:	01c00044 	movi	r7,1
 20009e8:	000d883a 	mov	r6,zero
 20009ec:	100b883a 	mov	r5,r2
 20009f0:	e13ffb17 	ldw	r4,-20(fp)
 20009f4:	20046f00 	call	20046f0 <xQueueGenericSend>
		ulData = 0;
 20009f8:	e03ffc15 	stw	zero,-16(fp)
		xQueueSendToFront( xQueue, ( void * ) &ulData, intsemNO_BLOCK );
 20009fc:	e0bffc04 	addi	r2,fp,-16
 2000a00:	01c00044 	movi	r7,1
 2000a04:	000d883a 	mov	r6,zero
 2000a08:	100b883a 	mov	r5,r2
 2000a0c:	e13ffb17 	ldw	r4,-20(fp)
 2000a10:	20046f00 	call	20046f0 <xQueueGenericSend>

		/* Now the queue should be full, and when we read the data out we
		should receive 0, 1, 2, 3, 4. */
		if( uxQueueMessagesWaiting( xQueue ) != 5 )
 2000a14:	e13ffb17 	ldw	r4,-20(fp)
 2000a18:	20051300 	call	2005130 <uxQueueMessagesWaiting>
 2000a1c:	10800160 	cmpeqi	r2,r2,5
 2000a20:	1000021e 	bne	r2,zero,2000a2c <prvSendFrontAndBackTest+0x1cc>
		{
			xErrorDetected = pdTRUE;
 2000a24:	00800044 	movi	r2,1
 2000a28:	d0a01c15 	stw	r2,-32656(gp)
		}

		if( xQueueSendToFront( xQueue, ( void * ) &ulData, intsemNO_BLOCK ) != errQUEUE_FULL )
 2000a2c:	e0bffc04 	addi	r2,fp,-16
 2000a30:	01c00044 	movi	r7,1
 2000a34:	000d883a 	mov	r6,zero
 2000a38:	100b883a 	mov	r5,r2
 2000a3c:	e13ffb17 	ldw	r4,-20(fp)
 2000a40:	20046f00 	call	20046f0 <xQueueGenericSend>
 2000a44:	10000226 	beq	r2,zero,2000a50 <prvSendFrontAndBackTest+0x1f0>
		{
			xErrorDetected = pdTRUE;
 2000a48:	00800044 	movi	r2,1
 2000a4c:	d0a01c15 	stw	r2,-32656(gp)
		}

		if( xQueueSendToBack( xQueue, ( void * ) &ulData, intsemNO_BLOCK ) != errQUEUE_FULL )
 2000a50:	e0bffc04 	addi	r2,fp,-16
 2000a54:	000f883a 	mov	r7,zero
 2000a58:	000d883a 	mov	r6,zero
 2000a5c:	100b883a 	mov	r5,r2
 2000a60:	e13ffb17 	ldw	r4,-20(fp)
 2000a64:	20046f00 	call	20046f0 <xQueueGenericSend>
 2000a68:	10000226 	beq	r2,zero,2000a74 <prvSendFrontAndBackTest+0x214>
		{
			xErrorDetected = pdTRUE;
 2000a6c:	00800044 	movi	r2,1
 2000a70:	d0a01c15 	stw	r2,-32656(gp)
		#if configUSE_PREEMPTION == 0
			taskYIELD();
		#endif

		/* Check the data we read out is in the expected order. */
		for( ulData = 0; ulData < genqQUEUE_LENGTH; ulData++ )
 2000a74:	e03ffc15 	stw	zero,-16(fp)
 2000a78:	00002206 	br	2000b04 <prvSendFrontAndBackTest+0x2a4>
		{
			/* Try peeking the data first. */
			if( xQueuePeek( xQueue, &ulData2, intsemNO_BLOCK ) != pdPASS )
 2000a7c:	e0bffd04 	addi	r2,fp,-12
 2000a80:	000d883a 	mov	r6,zero
 2000a84:	100b883a 	mov	r5,r2
 2000a88:	e13ffb17 	ldw	r4,-20(fp)
 2000a8c:	2004e200 	call	2004e20 <xQueuePeek>
 2000a90:	10800060 	cmpeqi	r2,r2,1
 2000a94:	1000021e 	bne	r2,zero,2000aa0 <prvSendFrontAndBackTest+0x240>
			{
				xErrorDetected = pdTRUE;
 2000a98:	00800044 	movi	r2,1
 2000a9c:	d0a01c15 	stw	r2,-32656(gp)
			}

			if( ulData != ulData2 )
 2000aa0:	e0fffc17 	ldw	r3,-16(fp)
 2000aa4:	e0bffd17 	ldw	r2,-12(fp)
 2000aa8:	18800226 	beq	r3,r2,2000ab4 <prvSendFrontAndBackTest+0x254>
			{
				xErrorDetected = pdTRUE;
 2000aac:	00800044 	movi	r2,1
 2000ab0:	d0a01c15 	stw	r2,-32656(gp)
			}


			/* Now try receiving the data for real.  The value should be the
			same.  Clobber the value first so we know we really received it. */
			ulData2 = ~ulData2;
 2000ab4:	e0bffd17 	ldw	r2,-12(fp)
 2000ab8:	0084303a 	nor	r2,zero,r2
 2000abc:	e0bffd15 	stw	r2,-12(fp)
			if( xQueueReceive( xQueue, &ulData2, intsemNO_BLOCK ) != pdPASS )
 2000ac0:	e0bffd04 	addi	r2,fp,-12
 2000ac4:	000d883a 	mov	r6,zero
 2000ac8:	100b883a 	mov	r5,r2
 2000acc:	e13ffb17 	ldw	r4,-20(fp)
 2000ad0:	2004a680 	call	2004a68 <xQueueReceive>
 2000ad4:	10800060 	cmpeqi	r2,r2,1
 2000ad8:	1000021e 	bne	r2,zero,2000ae4 <prvSendFrontAndBackTest+0x284>
			{
				xErrorDetected = pdTRUE;
 2000adc:	00800044 	movi	r2,1
 2000ae0:	d0a01c15 	stw	r2,-32656(gp)
			}

			if( ulData != ulData2 )
 2000ae4:	e0fffc17 	ldw	r3,-16(fp)
 2000ae8:	e0bffd17 	ldw	r2,-12(fp)
 2000aec:	18800226 	beq	r3,r2,2000af8 <prvSendFrontAndBackTest+0x298>
			{
				xErrorDetected = pdTRUE;
 2000af0:	00800044 	movi	r2,1
 2000af4:	d0a01c15 	stw	r2,-32656(gp)
		#if configUSE_PREEMPTION == 0
			taskYIELD();
		#endif

		/* Check the data we read out is in the expected order. */
		for( ulData = 0; ulData < genqQUEUE_LENGTH; ulData++ )
 2000af8:	e0bffc17 	ldw	r2,-16(fp)
 2000afc:	10800044 	addi	r2,r2,1
 2000b00:	e0bffc15 	stw	r2,-16(fp)
 2000b04:	e0bffc17 	ldw	r2,-16(fp)
 2000b08:	10800170 	cmpltui	r2,r2,5
 2000b0c:	103fdb1e 	bne	r2,zero,2000a7c <prvSendFrontAndBackTest+0x21c>
				xErrorDetected = pdTRUE;
			}
		}

		/* The queue should now be empty again. */
		if( uxQueueMessagesWaiting( xQueue ) != 0 )
 2000b10:	e13ffb17 	ldw	r4,-20(fp)
 2000b14:	20051300 	call	2005130 <uxQueueMessagesWaiting>
 2000b18:	10000226 	beq	r2,zero,2000b24 <prvSendFrontAndBackTest+0x2c4>
		{
			xErrorDetected = pdTRUE;
 2000b1c:	00800044 	movi	r2,1
 2000b20:	d0a01c15 	stw	r2,-32656(gp)
			taskYIELD();
		#endif


		/* Our queue is empty once more, add 10, 11 to the back. */
		ulData = 10;
 2000b24:	00800284 	movi	r2,10
 2000b28:	e0bffc15 	stw	r2,-16(fp)
		if( xQueueSend( xQueue, &ulData, intsemNO_BLOCK ) != pdPASS )
 2000b2c:	e0bffc04 	addi	r2,fp,-16
 2000b30:	000f883a 	mov	r7,zero
 2000b34:	000d883a 	mov	r6,zero
 2000b38:	100b883a 	mov	r5,r2
 2000b3c:	e13ffb17 	ldw	r4,-20(fp)
 2000b40:	20046f00 	call	20046f0 <xQueueGenericSend>
 2000b44:	10800060 	cmpeqi	r2,r2,1
 2000b48:	1000021e 	bne	r2,zero,2000b54 <prvSendFrontAndBackTest+0x2f4>
		{
			xErrorDetected = pdTRUE;
 2000b4c:	00800044 	movi	r2,1
 2000b50:	d0a01c15 	stw	r2,-32656(gp)
		}
		ulData = 11;
 2000b54:	008002c4 	movi	r2,11
 2000b58:	e0bffc15 	stw	r2,-16(fp)
		if( xQueueSend( xQueue, &ulData, intsemNO_BLOCK ) != pdPASS )
 2000b5c:	e0bffc04 	addi	r2,fp,-16
 2000b60:	000f883a 	mov	r7,zero
 2000b64:	000d883a 	mov	r6,zero
 2000b68:	100b883a 	mov	r5,r2
 2000b6c:	e13ffb17 	ldw	r4,-20(fp)
 2000b70:	20046f00 	call	20046f0 <xQueueGenericSend>
 2000b74:	10800060 	cmpeqi	r2,r2,1
 2000b78:	1000021e 	bne	r2,zero,2000b84 <prvSendFrontAndBackTest+0x324>
		{
			xErrorDetected = pdTRUE;
 2000b7c:	00800044 	movi	r2,1
 2000b80:	d0a01c15 	stw	r2,-32656(gp)
		}

		if( uxQueueMessagesWaiting( xQueue ) != 2 )
 2000b84:	e13ffb17 	ldw	r4,-20(fp)
 2000b88:	20051300 	call	2005130 <uxQueueMessagesWaiting>
 2000b8c:	108000a0 	cmpeqi	r2,r2,2
 2000b90:	1000021e 	bne	r2,zero,2000b9c <prvSendFrontAndBackTest+0x33c>
		{
			xErrorDetected = pdTRUE;
 2000b94:	00800044 	movi	r2,1
 2000b98:	d0a01c15 	stw	r2,-32656(gp)
		}

		/* Now we should have 10, 11 in the queue.  Add 7, 8, 9 to the
		front. */
		for( ulData = 9; ulData >= 7; ulData-- )
 2000b9c:	00800244 	movi	r2,9
 2000ba0:	e0bffc15 	stw	r2,-16(fp)
 2000ba4:	00000d06 	br	2000bdc <prvSendFrontAndBackTest+0x37c>
		{
			if( xQueueSendToFront( xQueue, ( void * ) &ulData, intsemNO_BLOCK ) != pdPASS )
 2000ba8:	e0bffc04 	addi	r2,fp,-16
 2000bac:	01c00044 	movi	r7,1
 2000bb0:	000d883a 	mov	r6,zero
 2000bb4:	100b883a 	mov	r5,r2
 2000bb8:	e13ffb17 	ldw	r4,-20(fp)
 2000bbc:	20046f00 	call	20046f0 <xQueueGenericSend>
 2000bc0:	10800060 	cmpeqi	r2,r2,1
 2000bc4:	1000021e 	bne	r2,zero,2000bd0 <prvSendFrontAndBackTest+0x370>
			{
				xErrorDetected = pdTRUE;
 2000bc8:	00800044 	movi	r2,1
 2000bcc:	d0a01c15 	stw	r2,-32656(gp)
			xErrorDetected = pdTRUE;
		}

		/* Now we should have 10, 11 in the queue.  Add 7, 8, 9 to the
		front. */
		for( ulData = 9; ulData >= 7; ulData-- )
 2000bd0:	e0bffc17 	ldw	r2,-16(fp)
 2000bd4:	10bfffc4 	addi	r2,r2,-1
 2000bd8:	e0bffc15 	stw	r2,-16(fp)
 2000bdc:	e0bffc17 	ldw	r2,-16(fp)
 2000be0:	108001e8 	cmpgeui	r2,r2,7
 2000be4:	103ff01e 	bne	r2,zero,2000ba8 <prvSendFrontAndBackTest+0x348>
			}
		}

		/* Now check that the queue is full, and that receiving data provides
		the expected sequence of 7, 8, 9, 10, 11. */
		if( uxQueueMessagesWaiting( xQueue ) != 5 )
 2000be8:	e13ffb17 	ldw	r4,-20(fp)
 2000bec:	20051300 	call	2005130 <uxQueueMessagesWaiting>
 2000bf0:	10800160 	cmpeqi	r2,r2,5
 2000bf4:	1000021e 	bne	r2,zero,2000c00 <prvSendFrontAndBackTest+0x3a0>
		{
			xErrorDetected = pdTRUE;
 2000bf8:	00800044 	movi	r2,1
 2000bfc:	d0a01c15 	stw	r2,-32656(gp)
		}

		if( xQueueSendToFront( xQueue, ( void * ) &ulData, intsemNO_BLOCK ) != errQUEUE_FULL )
 2000c00:	e0bffc04 	addi	r2,fp,-16
 2000c04:	01c00044 	movi	r7,1
 2000c08:	000d883a 	mov	r6,zero
 2000c0c:	100b883a 	mov	r5,r2
 2000c10:	e13ffb17 	ldw	r4,-20(fp)
 2000c14:	20046f00 	call	20046f0 <xQueueGenericSend>
 2000c18:	10000226 	beq	r2,zero,2000c24 <prvSendFrontAndBackTest+0x3c4>
		{
			xErrorDetected = pdTRUE;
 2000c1c:	00800044 	movi	r2,1
 2000c20:	d0a01c15 	stw	r2,-32656(gp)
		}

		if( xQueueSendToBack( xQueue, ( void * ) &ulData, intsemNO_BLOCK ) != errQUEUE_FULL )
 2000c24:	e0bffc04 	addi	r2,fp,-16
 2000c28:	000f883a 	mov	r7,zero
 2000c2c:	000d883a 	mov	r6,zero
 2000c30:	100b883a 	mov	r5,r2
 2000c34:	e13ffb17 	ldw	r4,-20(fp)
 2000c38:	20046f00 	call	20046f0 <xQueueGenericSend>
 2000c3c:	10000226 	beq	r2,zero,2000c48 <prvSendFrontAndBackTest+0x3e8>
		{
			xErrorDetected = pdTRUE;
 2000c40:	00800044 	movi	r2,1
 2000c44:	d0a01c15 	stw	r2,-32656(gp)
		#if configUSE_PREEMPTION == 0
			taskYIELD();
		#endif

		/* Check the data we read out is in the expected order. */
		for( ulData = 7; ulData < ( 7 + genqQUEUE_LENGTH ); ulData++ )
 2000c48:	008001c4 	movi	r2,7
 2000c4c:	e0bffc15 	stw	r2,-16(fp)
 2000c50:	00001106 	br	2000c98 <prvSendFrontAndBackTest+0x438>
		{
			if( xQueueReceive( xQueue, &ulData2, intsemNO_BLOCK ) != pdPASS )
 2000c54:	e0bffd04 	addi	r2,fp,-12
 2000c58:	000d883a 	mov	r6,zero
 2000c5c:	100b883a 	mov	r5,r2
 2000c60:	e13ffb17 	ldw	r4,-20(fp)
 2000c64:	2004a680 	call	2004a68 <xQueueReceive>
 2000c68:	10800060 	cmpeqi	r2,r2,1
 2000c6c:	1000021e 	bne	r2,zero,2000c78 <prvSendFrontAndBackTest+0x418>
			{
				xErrorDetected = pdTRUE;
 2000c70:	00800044 	movi	r2,1
 2000c74:	d0a01c15 	stw	r2,-32656(gp)
			}

			if( ulData != ulData2 )
 2000c78:	e0fffc17 	ldw	r3,-16(fp)
 2000c7c:	e0bffd17 	ldw	r2,-12(fp)
 2000c80:	18800226 	beq	r3,r2,2000c8c <prvSendFrontAndBackTest+0x42c>
			{
				xErrorDetected = pdTRUE;
 2000c84:	00800044 	movi	r2,1
 2000c88:	d0a01c15 	stw	r2,-32656(gp)
		#if configUSE_PREEMPTION == 0
			taskYIELD();
		#endif

		/* Check the data we read out is in the expected order. */
		for( ulData = 7; ulData < ( 7 + genqQUEUE_LENGTH ); ulData++ )
 2000c8c:	e0bffc17 	ldw	r2,-16(fp)
 2000c90:	10800044 	addi	r2,r2,1
 2000c94:	e0bffc15 	stw	r2,-16(fp)
 2000c98:	e0bffc17 	ldw	r2,-16(fp)
 2000c9c:	10800330 	cmpltui	r2,r2,12
 2000ca0:	103fec1e 	bne	r2,zero,2000c54 <prvSendFrontAndBackTest+0x3f4>
			{
				xErrorDetected = pdTRUE;
			}
		}

		if( uxQueueMessagesWaiting( xQueue ) != 0 )
 2000ca4:	e13ffb17 	ldw	r4,-20(fp)
 2000ca8:	20051300 	call	2005130 <uxQueueMessagesWaiting>
 2000cac:	10000226 	beq	r2,zero,2000cb8 <prvSendFrontAndBackTest+0x458>
		{
			xErrorDetected = pdTRUE;
 2000cb0:	00800044 	movi	r2,1
 2000cb4:	d0a01c15 	stw	r2,-32656(gp)
		}

		/* Increment the loop counter to indicate these tasks are still
		executing. */
		ulLoopCounter++;
 2000cb8:	d0a01d17 	ldw	r2,-32652(gp)
 2000cbc:	10800044 	addi	r2,r2,1
 2000cc0:	d0a01d15 	stw	r2,-32652(gp)
	}
 2000cc4:	003eed06 	br	200087c <prvSendFrontAndBackTest+0x1c>

02000cc8 <prvTakeTwoMutexesReturnInDifferentOrder>:

#endif /* INCLUDE_xTaskAbortDelay == 1 */
/*-----------------------------------------------------------*/

static void prvTakeTwoMutexesReturnInDifferentOrder( SemaphoreHandle_t xMutex, SemaphoreHandle_t xLocalMutex )
{
 2000cc8:	defffc04 	addi	sp,sp,-16
 2000ccc:	dfc00315 	stw	ra,12(sp)
 2000cd0:	df000215 	stw	fp,8(sp)
 2000cd4:	df000204 	addi	fp,sp,8
 2000cd8:	e13ffe15 	stw	r4,-8(fp)
 2000cdc:	e17fff15 	stw	r5,-4(fp)
	/* Take the mutex.  It should be available now. */
	if( xSemaphoreTake( xMutex, intsemNO_BLOCK ) != pdPASS )
 2000ce0:	000b883a 	mov	r5,zero
 2000ce4:	e13ffe17 	ldw	r4,-8(fp)
 2000ce8:	2004c100 	call	2004c10 <xQueueSemaphoreTake>
 2000cec:	10800060 	cmpeqi	r2,r2,1
 2000cf0:	1000021e 	bne	r2,zero,2000cfc <prvTakeTwoMutexesReturnInDifferentOrder+0x34>
	{
		xErrorDetected = pdTRUE;
 2000cf4:	00800044 	movi	r2,1
 2000cf8:	d0a01c15 	stw	r2,-32656(gp)
	}

	/* Set the guarded variable to a known start value. */
	ulGuardedVariable = 0;
 2000cfc:	d0201f15 	stw	zero,-32644(gp)

	/* This task's priority should be as per that assigned when the task was
	created. */
	if( uxTaskPriorityGet( NULL ) != genqMUTEX_LOW_PRIORITY )
 2000d00:	0009883a 	mov	r4,zero
 2000d04:	2005cec0 	call	2005cec <uxTaskPriorityGet>
 2000d08:	10000226 	beq	r2,zero,2000d14 <prvTakeTwoMutexesReturnInDifferentOrder+0x4c>
	{
		xErrorDetected = pdTRUE;
 2000d0c:	00800044 	movi	r2,1
 2000d10:	d0a01c15 	stw	r2,-32656(gp)
	}

	/* Now unsuspend the high priority task.  This will attempt to take the
	mutex, and block when it finds it cannot obtain it. */
	vTaskResume( xHighPriorityMutexTask );
 2000d14:	d0a02017 	ldw	r2,-32640(gp)
 2000d18:	1009883a 	mov	r4,r2
 2000d1c:	20060b80 	call	20060b8 <vTaskResume>
	#endif /* INCLUDE_eTaskGetState */

	/* This task should now have inherited the priority of the high priority
	task as by now the high priority task will have attempted to obtain the
	mutex. */
	if( uxTaskPriorityGet( NULL ) != genqMUTEX_HIGH_PRIORITY )
 2000d20:	0009883a 	mov	r4,zero
 2000d24:	2005cec0 	call	2005cec <uxTaskPriorityGet>
 2000d28:	108000e0 	cmpeqi	r2,r2,3
 2000d2c:	1000021e 	bne	r2,zero,2000d38 <prvTakeTwoMutexesReturnInDifferentOrder+0x70>
	{
		xErrorDetected = pdTRUE;
 2000d30:	00800044 	movi	r2,1
 2000d34:	d0a01c15 	stw	r2,-32656(gp)
	}

	/* Attempt to set the priority of this task to the test priority -
	between the idle priority and the medium/high test priorities, but the
	actual priority should remain at the high priority. */
	vTaskPrioritySet( NULL, genqMUTEX_TEST_PRIORITY );
 2000d38:	01400044 	movi	r5,1
 2000d3c:	0009883a 	mov	r4,zero
 2000d40:	2005d900 	call	2005d90 <vTaskPrioritySet>
	if( uxTaskPriorityGet( NULL ) != genqMUTEX_HIGH_PRIORITY )
 2000d44:	0009883a 	mov	r4,zero
 2000d48:	2005cec0 	call	2005cec <uxTaskPriorityGet>
 2000d4c:	108000e0 	cmpeqi	r2,r2,3
 2000d50:	1000021e 	bne	r2,zero,2000d5c <prvTakeTwoMutexesReturnInDifferentOrder+0x94>
	{
		xErrorDetected = pdTRUE;
 2000d54:	00800044 	movi	r2,1
 2000d58:	d0a01c15 	stw	r2,-32656(gp)
	}

	/* Now unsuspend the medium priority task.  This should not run as the
	inherited priority of this task is above that of the medium priority
	task. */
	vTaskResume( xMediumPriorityMutexTask );
 2000d5c:	d0a02117 	ldw	r2,-32636(gp)
 2000d60:	1009883a 	mov	r4,r2
 2000d64:	20060b80 	call	20060b8 <vTaskResume>

	/* If the medium priority task did run then it will have incremented the
	guarded variable. */
	if( ulGuardedVariable != 0 )
 2000d68:	d0a01f17 	ldw	r2,-32644(gp)
 2000d6c:	10000226 	beq	r2,zero,2000d78 <prvTakeTwoMutexesReturnInDifferentOrder+0xb0>
	{
		xErrorDetected = pdTRUE;
 2000d70:	00800044 	movi	r2,1
 2000d74:	d0a01c15 	stw	r2,-32656(gp)
	}

	/* Take the local mutex too, so two mutexes are now held. */
	if( xSemaphoreTake( xLocalMutex, intsemNO_BLOCK ) != pdPASS )
 2000d78:	000b883a 	mov	r5,zero
 2000d7c:	e13fff17 	ldw	r4,-4(fp)
 2000d80:	2004c100 	call	2004c10 <xQueueSemaphoreTake>
 2000d84:	10800060 	cmpeqi	r2,r2,1
 2000d88:	1000021e 	bne	r2,zero,2000d94 <prvTakeTwoMutexesReturnInDifferentOrder+0xcc>
	{
		xErrorDetected = pdTRUE;
 2000d8c:	00800044 	movi	r2,1
 2000d90:	d0a01c15 	stw	r2,-32656(gp)
	yet be disinherited because the local mutex is still held.  This is a
	simplification to allow FreeRTOS to be integrated with middleware that
	attempts to hold multiple mutexes without bloating the code with complex
	algorithms.  It is possible that the high priority mutex task will
	execute as it shares a priority with this task. */
	if( xSemaphoreGive( xMutex ) != pdPASS )
 2000d94:	000f883a 	mov	r7,zero
 2000d98:	000d883a 	mov	r6,zero
 2000d9c:	000b883a 	mov	r5,zero
 2000da0:	e13ffe17 	ldw	r4,-8(fp)
 2000da4:	20046f00 	call	20046f0 <xQueueGenericSend>
 2000da8:	10800060 	cmpeqi	r2,r2,1
 2000dac:	1000021e 	bne	r2,zero,2000db8 <prvTakeTwoMutexesReturnInDifferentOrder+0xf0>
	{
		xErrorDetected = pdTRUE;
 2000db0:	00800044 	movi	r2,1
 2000db4:	d0a01c15 	stw	r2,-32656(gp)
	#endif

	/* The guarded variable is only incremented by the medium priority task,
	which still should not have executed as this task should remain at the
	higher priority, ensure this is the case. */
	if( ulGuardedVariable != 0 )
 2000db8:	d0a01f17 	ldw	r2,-32644(gp)
 2000dbc:	10000226 	beq	r2,zero,2000dc8 <prvTakeTwoMutexesReturnInDifferentOrder+0x100>
	{
		xErrorDetected = pdTRUE;
 2000dc0:	00800044 	movi	r2,1
 2000dc4:	d0a01c15 	stw	r2,-32656(gp)
	}

	if( uxTaskPriorityGet( NULL ) != genqMUTEX_HIGH_PRIORITY )
 2000dc8:	0009883a 	mov	r4,zero
 2000dcc:	2005cec0 	call	2005cec <uxTaskPriorityGet>
 2000dd0:	108000e0 	cmpeqi	r2,r2,3
 2000dd4:	1000021e 	bne	r2,zero,2000de0 <prvTakeTwoMutexesReturnInDifferentOrder+0x118>
	{
		xErrorDetected = pdTRUE;
 2000dd8:	00800044 	movi	r2,1
 2000ddc:	d0a01c15 	stw	r2,-32656(gp)
	This time the priority of this task should be disinherited back to the
	priority to which it was set while the mutex was held.  This means
	the medium priority task should execute and increment the guarded
	variable.   When this task next	runs both the high and medium priority
	tasks will have been suspended again. */
	if( xSemaphoreGive( xLocalMutex ) != pdPASS )
 2000de0:	000f883a 	mov	r7,zero
 2000de4:	000d883a 	mov	r6,zero
 2000de8:	000b883a 	mov	r5,zero
 2000dec:	e13fff17 	ldw	r4,-4(fp)
 2000df0:	20046f00 	call	20046f0 <xQueueGenericSend>
 2000df4:	10800060 	cmpeqi	r2,r2,1
 2000df8:	1000021e 	bne	r2,zero,2000e04 <prvTakeTwoMutexesReturnInDifferentOrder+0x13c>
	{
		xErrorDetected = pdTRUE;
 2000dfc:	00800044 	movi	r2,1
 2000e00:	d0a01c15 	stw	r2,-32656(gp)
	#if configUSE_PREEMPTION == 0
		taskYIELD();
	#endif

	/* Check the guarded variable did indeed increment... */
	if( ulGuardedVariable != 1 )
 2000e04:	d0a01f17 	ldw	r2,-32644(gp)
 2000e08:	10800060 	cmpeqi	r2,r2,1
 2000e0c:	1000021e 	bne	r2,zero,2000e18 <prvTakeTwoMutexesReturnInDifferentOrder+0x150>
	{
		xErrorDetected = pdTRUE;
 2000e10:	00800044 	movi	r2,1
 2000e14:	d0a01c15 	stw	r2,-32656(gp)
	}

	/* ... and that the priority of this task has been disinherited to
	genqMUTEX_TEST_PRIORITY. */
	if( uxTaskPriorityGet( NULL ) != genqMUTEX_TEST_PRIORITY )
 2000e18:	0009883a 	mov	r4,zero
 2000e1c:	2005cec0 	call	2005cec <uxTaskPriorityGet>
 2000e20:	10800060 	cmpeqi	r2,r2,1
 2000e24:	1000021e 	bne	r2,zero,2000e30 <prvTakeTwoMutexesReturnInDifferentOrder+0x168>
	{
		xErrorDetected = pdTRUE;
 2000e28:	00800044 	movi	r2,1
 2000e2c:	d0a01c15 	stw	r2,-32656(gp)
	}

	/* Set the priority of this task back to its original value, ready for
	the next loop around this test. */
	vTaskPrioritySet( NULL, genqMUTEX_LOW_PRIORITY );
 2000e30:	000b883a 	mov	r5,zero
 2000e34:	0009883a 	mov	r4,zero
 2000e38:	2005d900 	call	2005d90 <vTaskPrioritySet>
}
 2000e3c:	0001883a 	nop
 2000e40:	e037883a 	mov	sp,fp
 2000e44:	dfc00117 	ldw	ra,4(sp)
 2000e48:	df000017 	ldw	fp,0(sp)
 2000e4c:	dec00204 	addi	sp,sp,8
 2000e50:	f800283a 	ret

02000e54 <prvTakeTwoMutexesReturnInSameOrder>:
/*-----------------------------------------------------------*/

static void prvTakeTwoMutexesReturnInSameOrder( SemaphoreHandle_t xMutex, SemaphoreHandle_t xLocalMutex )
{
 2000e54:	defffc04 	addi	sp,sp,-16
 2000e58:	dfc00315 	stw	ra,12(sp)
 2000e5c:	df000215 	stw	fp,8(sp)
 2000e60:	df000204 	addi	fp,sp,8
 2000e64:	e13ffe15 	stw	r4,-8(fp)
 2000e68:	e17fff15 	stw	r5,-4(fp)
	/* Take the mutex.  It should be available now. */
	if( xSemaphoreTake( xMutex, intsemNO_BLOCK ) != pdPASS )
 2000e6c:	000b883a 	mov	r5,zero
 2000e70:	e13ffe17 	ldw	r4,-8(fp)
 2000e74:	2004c100 	call	2004c10 <xQueueSemaphoreTake>
 2000e78:	10800060 	cmpeqi	r2,r2,1
 2000e7c:	1000021e 	bne	r2,zero,2000e88 <prvTakeTwoMutexesReturnInSameOrder+0x34>
	{
		xErrorDetected = pdTRUE;
 2000e80:	00800044 	movi	r2,1
 2000e84:	d0a01c15 	stw	r2,-32656(gp)
	}

	/* Set the guarded variable to a known start value. */
	ulGuardedVariable = 0;
 2000e88:	d0201f15 	stw	zero,-32644(gp)

	/* This task's priority should be as per that assigned when the task was
	created. */
	if( uxTaskPriorityGet( NULL ) != genqMUTEX_LOW_PRIORITY )
 2000e8c:	0009883a 	mov	r4,zero
 2000e90:	2005cec0 	call	2005cec <uxTaskPriorityGet>
 2000e94:	10000226 	beq	r2,zero,2000ea0 <prvTakeTwoMutexesReturnInSameOrder+0x4c>
	{
		xErrorDetected = pdTRUE;
 2000e98:	00800044 	movi	r2,1
 2000e9c:	d0a01c15 	stw	r2,-32656(gp)
	}

	/* Now unsuspend the high priority task.  This will attempt to take the
	mutex, and block when it finds it cannot obtain it. */
	vTaskResume( xHighPriorityMutexTask );
 2000ea0:	d0a02017 	ldw	r2,-32640(gp)
 2000ea4:	1009883a 	mov	r4,r2
 2000ea8:	20060b80 	call	20060b8 <vTaskResume>
	#endif /* INCLUDE_eTaskGetState */

	/* This task should now have inherited the priority of the high priority
	task as by now the high priority task will have attempted to obtain the
	mutex. */
	if( uxTaskPriorityGet( NULL ) != genqMUTEX_HIGH_PRIORITY )
 2000eac:	0009883a 	mov	r4,zero
 2000eb0:	2005cec0 	call	2005cec <uxTaskPriorityGet>
 2000eb4:	108000e0 	cmpeqi	r2,r2,3
 2000eb8:	1000021e 	bne	r2,zero,2000ec4 <prvTakeTwoMutexesReturnInSameOrder+0x70>
	{
		xErrorDetected = pdTRUE;
 2000ebc:	00800044 	movi	r2,1
 2000ec0:	d0a01c15 	stw	r2,-32656(gp)
	}

	/* Now unsuspend the medium priority task.  This should not run as the
	inherited priority of this task is above that of the medium priority
	task. */
	vTaskResume( xMediumPriorityMutexTask );
 2000ec4:	d0a02117 	ldw	r2,-32636(gp)
 2000ec8:	1009883a 	mov	r4,r2
 2000ecc:	20060b80 	call	20060b8 <vTaskResume>

	/* If the medium priority task did run then it will have incremented the
	guarded variable. */
	if( ulGuardedVariable != 0 )
 2000ed0:	d0a01f17 	ldw	r2,-32644(gp)
 2000ed4:	10000226 	beq	r2,zero,2000ee0 <prvTakeTwoMutexesReturnInSameOrder+0x8c>
	{
		xErrorDetected = pdTRUE;
 2000ed8:	00800044 	movi	r2,1
 2000edc:	d0a01c15 	stw	r2,-32656(gp)
	}

	/* Take the local mutex too, so two mutexes are now held. */
	if( xSemaphoreTake( xLocalMutex, intsemNO_BLOCK ) != pdPASS )
 2000ee0:	000b883a 	mov	r5,zero
 2000ee4:	e13fff17 	ldw	r4,-4(fp)
 2000ee8:	2004c100 	call	2004c10 <xQueueSemaphoreTake>
 2000eec:	10800060 	cmpeqi	r2,r2,1
 2000ef0:	1000021e 	bne	r2,zero,2000efc <prvTakeTwoMutexesReturnInSameOrder+0xa8>
	{
		xErrorDetected = pdTRUE;
 2000ef4:	00800044 	movi	r2,1
 2000ef8:	d0a01c15 	stw	r2,-32656(gp)
	not yet be disinherited because the shared mutex is still held.  This is a
	simplification to allow FreeRTOS to be integrated with middleware that
	attempts to hold multiple mutexes without bloating the code with complex
	algorithms.  It is possible that the high priority mutex task will
	execute as it shares a priority with this task. */
	if( xSemaphoreGive( xLocalMutex ) != pdPASS )
 2000efc:	000f883a 	mov	r7,zero
 2000f00:	000d883a 	mov	r6,zero
 2000f04:	000b883a 	mov	r5,zero
 2000f08:	e13fff17 	ldw	r4,-4(fp)
 2000f0c:	20046f00 	call	20046f0 <xQueueGenericSend>
 2000f10:	10800060 	cmpeqi	r2,r2,1
 2000f14:	1000021e 	bne	r2,zero,2000f20 <prvTakeTwoMutexesReturnInSameOrder+0xcc>
	{
		xErrorDetected = pdTRUE;
 2000f18:	00800044 	movi	r2,1
 2000f1c:	d0a01c15 	stw	r2,-32656(gp)
	#endif

	/* The guarded variable is only incremented by the medium priority task,
	which still should not have executed as this task should remain at the
	higher priority, ensure this is the case. */
	if( ulGuardedVariable != 0 )
 2000f20:	d0a01f17 	ldw	r2,-32644(gp)
 2000f24:	10000226 	beq	r2,zero,2000f30 <prvTakeTwoMutexesReturnInSameOrder+0xdc>
	{
		xErrorDetected = pdTRUE;
 2000f28:	00800044 	movi	r2,1
 2000f2c:	d0a01c15 	stw	r2,-32656(gp)
	}

	if( uxTaskPriorityGet( NULL ) != genqMUTEX_HIGH_PRIORITY )
 2000f30:	0009883a 	mov	r4,zero
 2000f34:	2005cec0 	call	2005cec <uxTaskPriorityGet>
 2000f38:	108000e0 	cmpeqi	r2,r2,3
 2000f3c:	1000021e 	bne	r2,zero,2000f48 <prvTakeTwoMutexesReturnInSameOrder+0xf4>
	{
		xErrorDetected = pdTRUE;
 2000f40:	00800044 	movi	r2,1
 2000f44:	d0a01c15 	stw	r2,-32656(gp)
	/* Now also give back the shared mutex, taking the held count back to 0.
	This time the priority of this task should be disinherited back to the
	priority at which it was created.  This means the medium priority task
	should execute and increment the guarded variable.  When this task next runs
	both the high and medium priority tasks will have been suspended again. */
	if( xSemaphoreGive( xMutex ) != pdPASS )
 2000f48:	000f883a 	mov	r7,zero
 2000f4c:	000d883a 	mov	r6,zero
 2000f50:	000b883a 	mov	r5,zero
 2000f54:	e13ffe17 	ldw	r4,-8(fp)
 2000f58:	20046f00 	call	20046f0 <xQueueGenericSend>
 2000f5c:	10800060 	cmpeqi	r2,r2,1
 2000f60:	1000021e 	bne	r2,zero,2000f6c <prvTakeTwoMutexesReturnInSameOrder+0x118>
	{
		xErrorDetected = pdTRUE;
 2000f64:	00800044 	movi	r2,1
 2000f68:	d0a01c15 	stw	r2,-32656(gp)
	#if configUSE_PREEMPTION == 0
		taskYIELD();
	#endif

	/* Check the guarded variable did indeed increment... */
	if( ulGuardedVariable != 1 )
 2000f6c:	d0a01f17 	ldw	r2,-32644(gp)
 2000f70:	10800060 	cmpeqi	r2,r2,1
 2000f74:	1000021e 	bne	r2,zero,2000f80 <prvTakeTwoMutexesReturnInSameOrder+0x12c>
	{
		xErrorDetected = pdTRUE;
 2000f78:	00800044 	movi	r2,1
 2000f7c:	d0a01c15 	stw	r2,-32656(gp)
	}

	/* ... and that the priority of this task has been disinherited to
	genqMUTEX_LOW_PRIORITY. */
	if( uxTaskPriorityGet( NULL ) != genqMUTEX_LOW_PRIORITY )
 2000f80:	0009883a 	mov	r4,zero
 2000f84:	2005cec0 	call	2005cec <uxTaskPriorityGet>
 2000f88:	10000226 	beq	r2,zero,2000f94 <prvTakeTwoMutexesReturnInSameOrder+0x140>
	{
		xErrorDetected = pdTRUE;
 2000f8c:	00800044 	movi	r2,1
 2000f90:	d0a01c15 	stw	r2,-32656(gp)
	}
}
 2000f94:	0001883a 	nop
 2000f98:	e037883a 	mov	sp,fp
 2000f9c:	dfc00117 	ldw	ra,4(sp)
 2000fa0:	df000017 	ldw	fp,0(sp)
 2000fa4:	dec00204 	addi	sp,sp,8
 2000fa8:	f800283a 	ret

02000fac <prvLowPriorityMutexTask>:
/*-----------------------------------------------------------*/

static void prvLowPriorityMutexTask( void *pvParameters )
{
 2000fac:	defffb04 	addi	sp,sp,-20
 2000fb0:	dfc00415 	stw	ra,16(sp)
 2000fb4:	df000315 	stw	fp,12(sp)
 2000fb8:	df000304 	addi	fp,sp,12
 2000fbc:	e13fff15 	stw	r4,-4(fp)
SemaphoreHandle_t xMutex = ( SemaphoreHandle_t ) pvParameters, xLocalMutex;
 2000fc0:	e0bfff17 	ldw	r2,-4(fp)
 2000fc4:	e0bffd15 	stw	r2,-12(fp)
		/* Queue a message for printing to say the task has started. */
		vPrintDisplayMessage( &pcTaskStartMsg );
	#endif

	/* The local mutex is used to check the 'mutexs held' count. */
	xLocalMutex = xSemaphoreCreateMutex();
 2000fc8:	01000044 	movi	r4,1
 2000fcc:	20045100 	call	2004510 <xQueueCreateMutex>
 2000fd0:	e0bffe15 	stw	r2,-8(fp)
	for( ;; )
	{
		/* The first tests exercise the priority inheritance when two mutexes
		are taken then returned in a different order to which they were
		taken. */
		prvTakeTwoMutexesReturnInDifferentOrder( xMutex, xLocalMutex );
 2000fd4:	e17ffe17 	ldw	r5,-8(fp)
 2000fd8:	e13ffd17 	ldw	r4,-12(fp)
 2000fdc:	2000cc80 	call	2000cc8 <prvTakeTwoMutexesReturnInDifferentOrder>

		/* Just to show this task is still running. */
		ulLoopCounter2++;
 2000fe0:	d0a01e17 	ldw	r2,-32648(gp)
 2000fe4:	10800044 	addi	r2,r2,1
 2000fe8:	d0a01e15 	stw	r2,-32648(gp)
			taskYIELD();
		#endif

		/* The second tests exercise the priority inheritance when two mutexes
		are taken then returned in the same order in which they were taken. */
		prvTakeTwoMutexesReturnInSameOrder( xMutex, xLocalMutex );
 2000fec:	e17ffe17 	ldw	r5,-8(fp)
 2000ff0:	e13ffd17 	ldw	r4,-12(fp)
 2000ff4:	2000e540 	call	2000e54 <prvTakeTwoMutexesReturnInSameOrder>

		/* Just to show this task is still running. */
		ulLoopCounter2++;
 2000ff8:	d0a01e17 	ldw	r2,-32648(gp)
 2000ffc:	10800044 	addi	r2,r2,1
 2001000:	d0a01e15 	stw	r2,-32648(gp)
			priority of a high priority task only for the high priority task to
			timeout before obtaining the mutex. */
			prvHighPriorityTimeout( xMutex );
		}
		#endif
	}
 2001004:	003ff306 	br	2000fd4 <prvLowPriorityMutexTask+0x28>

02001008 <prvMediumPriorityMutexTask>:
}
/*-----------------------------------------------------------*/

static void prvMediumPriorityMutexTask( void *pvParameters )
{
 2001008:	defffd04 	addi	sp,sp,-12
 200100c:	dfc00215 	stw	ra,8(sp)
 2001010:	df000115 	stw	fp,4(sp)
 2001014:	df000104 	addi	fp,sp,4
 2001018:	e13fff15 	stw	r4,-4(fp)

	for( ;; )
	{
		/* The medium priority task starts by suspending itself.  The low
		priority task will unsuspend this task when required. */
		vTaskSuspend( NULL );
 200101c:	0009883a 	mov	r4,zero
 2001020:	2005f500 	call	2005f50 <vTaskSuspend>

		/* When this task unsuspends all it does is increment the guarded
		variable, this is so the low priority task knows that it has
		executed. */
		ulGuardedVariable++;
 2001024:	d0a01f17 	ldw	r2,-32644(gp)
 2001028:	10800044 	addi	r2,r2,1
 200102c:	d0a01f15 	stw	r2,-32644(gp)
	}
 2001030:	003ffa06 	br	200101c <prvMediumPriorityMutexTask+0x14>

02001034 <prvHighPriorityMutexTask>:
}
/*-----------------------------------------------------------*/

static void prvHighPriorityMutexTask( void *pvParameters )
{
 2001034:	defffc04 	addi	sp,sp,-16
 2001038:	dfc00315 	stw	ra,12(sp)
 200103c:	df000215 	stw	fp,8(sp)
 2001040:	df000204 	addi	fp,sp,8
 2001044:	e13fff15 	stw	r4,-4(fp)
SemaphoreHandle_t xMutex = ( SemaphoreHandle_t ) pvParameters;
 2001048:	e0bfff17 	ldw	r2,-4(fp)
 200104c:	e0bffe15 	stw	r2,-8(fp)

	for( ;; )
	{
		/* The high priority task starts by suspending itself.  The low
		priority task will unsuspend this task when required. */
		vTaskSuspend( NULL );
 2001050:	0009883a 	mov	r4,zero
 2001054:	2005f500 	call	2005f50 <vTaskSuspend>

		/* When this task unsuspends all it does is attempt to obtain the
		mutex.  It should find the mutex is not available so a block time is
		specified. */
		if( xSemaphoreTake( xMutex, portMAX_DELAY ) != pdPASS )
 2001058:	017fffc4 	movi	r5,-1
 200105c:	e13ffe17 	ldw	r4,-8(fp)
 2001060:	2004c100 	call	2004c10 <xQueueSemaphoreTake>
 2001064:	10800060 	cmpeqi	r2,r2,1
 2001068:	1000071e 	bne	r2,zero,2001088 <prvHighPriorityMutexTask+0x54>
		{
			/* This task would expect to obtain the mutex unless its wait for
			the mutex was aborted. */
			if( xBlockWasAborted == pdFALSE )
 200106c:	d0a02217 	ldw	r2,-32632(gp)
 2001070:	1000031e 	bne	r2,zero,2001080 <prvHighPriorityMutexTask+0x4c>
			{
				xErrorDetected = pdTRUE;
 2001074:	00800044 	movi	r2,1
 2001078:	d0a01c15 	stw	r2,-32656(gp)
 200107c:	003ff406 	br	2001050 <prvHighPriorityMutexTask+0x1c>
			}
			else
			{
				xBlockWasAborted = pdFALSE;
 2001080:	d0202215 	stw	zero,-32632(gp)
 2001084:	003ff206 	br	2001050 <prvHighPriorityMutexTask+0x1c>
		}
		else
		{
			/* When the mutex is eventually obtained it is just given back before
			returning to suspend ready for the next cycle. */
			if( xSemaphoreGive( xMutex ) != pdPASS )
 2001088:	000f883a 	mov	r7,zero
 200108c:	000d883a 	mov	r6,zero
 2001090:	000b883a 	mov	r5,zero
 2001094:	e13ffe17 	ldw	r4,-8(fp)
 2001098:	20046f00 	call	20046f0 <xQueueGenericSend>
 200109c:	10800060 	cmpeqi	r2,r2,1
 20010a0:	103feb1e 	bne	r2,zero,2001050 <prvHighPriorityMutexTask+0x1c>
			{
				xErrorDetected = pdTRUE;
 20010a4:	00800044 	movi	r2,1
 20010a8:	d0a01c15 	stw	r2,-32656(gp)
			}
		}
	}
 20010ac:	003fe806 	br	2001050 <prvHighPriorityMutexTask+0x1c>

020010b0 <xAreGenericQueueTasksStillRunning>:
/*-----------------------------------------------------------*/


/* This is called to check that all the created tasks are still running. */
BaseType_t xAreGenericQueueTasksStillRunning( void )
{
 20010b0:	deffff04 	addi	sp,sp,-4
 20010b4:	df000015 	stw	fp,0(sp)
 20010b8:	d839883a 	mov	fp,sp
static uint32_t ulLastLoopCounter = 0, ulLastLoopCounter2 = 0;

	/* If the demo task is still running then we expect the loop counters to
	have incremented since this function was last called. */
	if( ulLastLoopCounter == ulLoopCounter )
 20010bc:	d0e02317 	ldw	r3,-32628(gp)
 20010c0:	d0a01d17 	ldw	r2,-32652(gp)
 20010c4:	1880021e 	bne	r3,r2,20010d0 <xAreGenericQueueTasksStillRunning+0x20>
	{
		xErrorDetected = pdTRUE;
 20010c8:	00800044 	movi	r2,1
 20010cc:	d0a01c15 	stw	r2,-32656(gp)
	}

	if( ulLastLoopCounter2 == ulLoopCounter2 )
 20010d0:	d0e02417 	ldw	r3,-32624(gp)
 20010d4:	d0a01e17 	ldw	r2,-32648(gp)
 20010d8:	1880021e 	bne	r3,r2,20010e4 <xAreGenericQueueTasksStillRunning+0x34>
	{
		xErrorDetected = pdTRUE;
 20010dc:	00800044 	movi	r2,1
 20010e0:	d0a01c15 	stw	r2,-32656(gp)
	}

	ulLastLoopCounter = ulLoopCounter;
 20010e4:	d0a01d17 	ldw	r2,-32652(gp)
 20010e8:	d0a02315 	stw	r2,-32628(gp)
	ulLastLoopCounter2 = ulLoopCounter2;
 20010ec:	d0a01e17 	ldw	r2,-32648(gp)
 20010f0:	d0a02415 	stw	r2,-32624(gp)

	/* Errors detected in the task itself will have latched xErrorDetected
	to true. */

	return ( BaseType_t ) !xErrorDetected;
 20010f4:	d0a01c17 	ldw	r2,-32656(gp)
 20010f8:	1005003a 	cmpeq	r2,r2,zero
 20010fc:	10803fcc 	andi	r2,r2,255
}
 2001100:	e037883a 	mov	sp,fp
 2001104:	df000017 	ldw	fp,0(sp)
 2001108:	dec00104 	addi	sp,sp,4
 200110c:	f800283a 	ret

02001110 <vStartPolledQueueTasks>:
static volatile BaseType_t xPollingConsumerCount = pollqINITIAL_VALUE, xPollingProducerCount = pollqINITIAL_VALUE;

/*-----------------------------------------------------------*/

void vStartPolledQueueTasks( UBaseType_t uxPriority )
{
 2001110:	defffb04 	addi	sp,sp,-20
 2001114:	dfc00415 	stw	ra,16(sp)
 2001118:	df000315 	stw	fp,12(sp)
 200111c:	df000304 	addi	fp,sp,12
 2001120:	e13fff15 	stw	r4,-4(fp)
static QueueHandle_t xPolledQueue;

	/* Create the queue used by the producer and consumer. */
	xPolledQueue = xQueueCreate( pollqQUEUE_SIZE, ( UBaseType_t ) sizeof( uint16_t ) );
 2001124:	000d883a 	mov	r6,zero
 2001128:	01400084 	movi	r5,2
 200112c:	01000284 	movi	r4,10
 2001130:	20043840 	call	2004384 <xQueueGenericCreate>
 2001134:	d0a02715 	stw	r2,-32612(gp)

	if( xPolledQueue != NULL )
 2001138:	d0a02717 	ldw	r2,-32612(gp)
 200113c:	10001426 	beq	r2,zero,2001190 <vStartPolledQueueTasks+0x80>
		by the pre-processor if configQUEUE_REGISTRY_SIZE is not defined or is
		defined to be less than 1. */
		vQueueAddToRegistry( xPolledQueue, "Poll_Test_Queue" );

		/* Spawn the producer and consumer. */
		xTaskCreate( vPolledQueueConsumer, "QConsNB", pollqSTACK_SIZE, ( void * ) &xPolledQueue, uxPriority, ( TaskHandle_t * ) NULL );
 2001140:	d8000115 	stw	zero,4(sp)
 2001144:	e0bfff17 	ldw	r2,-4(fp)
 2001148:	d8800015 	stw	r2,0(sp)
 200114c:	d1e02704 	addi	r7,gp,-32612
 2001150:	01810004 	movi	r6,1024
 2001154:	014080b4 	movhi	r5,514
 2001158:	29672904 	addi	r5,r5,-25436
 200115c:	01008034 	movhi	r4,512
 2001160:	21049304 	addi	r4,r4,4684
 2001164:	20056e40 	call	20056e4 <xTaskCreate>
		xTaskCreate( vPolledQueueProducer, "QProdNB", pollqSTACK_SIZE, ( void * ) &xPolledQueue, uxPriority, ( TaskHandle_t * ) NULL );
 2001168:	d8000115 	stw	zero,4(sp)
 200116c:	e0bfff17 	ldw	r2,-4(fp)
 2001170:	d8800015 	stw	r2,0(sp)
 2001174:	d1e02704 	addi	r7,gp,-32612
 2001178:	01810004 	movi	r6,1024
 200117c:	014080b4 	movhi	r5,514
 2001180:	29672b04 	addi	r5,r5,-25428
 2001184:	01008034 	movhi	r4,512
 2001188:	21046a04 	addi	r4,r4,4520
 200118c:	20056e40 	call	20056e4 <xTaskCreate>
	}
}
 2001190:	0001883a 	nop
 2001194:	e037883a 	mov	sp,fp
 2001198:	dfc00117 	ldw	ra,4(sp)
 200119c:	df000017 	ldw	fp,0(sp)
 20011a0:	dec00204 	addi	sp,sp,8
 20011a4:	f800283a 	ret

020011a8 <vPolledQueueProducer>:
/*-----------------------------------------------------------*/

static portTASK_FUNCTION( vPolledQueueProducer, pvParameters )
{
 20011a8:	defffa04 	addi	sp,sp,-24
 20011ac:	dfc00515 	stw	ra,20(sp)
 20011b0:	df000415 	stw	fp,16(sp)
 20011b4:	df000404 	addi	fp,sp,16
 20011b8:	e13fff15 	stw	r4,-4(fp)
uint16_t usValue = ( uint16_t ) 0;
 20011bc:	e03ffe0d 	sth	zero,-8(fp)
BaseType_t xError = pdFALSE, xLoop;
 20011c0:	e03ffc15 	stw	zero,-16(fp)

	for( ;; )
	{
		for( xLoop = 0; xLoop < pollqVALUES_TO_PRODUCE; xLoop++ )
 20011c4:	e03ffd15 	stw	zero,-12(fp)
 20011c8:	00001a06 	br	2001234 <vPolledQueueProducer+0x8c>
		{
			/* Send an incrementing number on the queue without blocking. */
			if( xQueueSend( *( ( QueueHandle_t * ) pvParameters ), ( void * ) &usValue, pollqNO_DELAY ) != pdPASS )
 20011cc:	e0bfff17 	ldw	r2,-4(fp)
 20011d0:	10800017 	ldw	r2,0(r2)
 20011d4:	e0fffe04 	addi	r3,fp,-8
 20011d8:	000f883a 	mov	r7,zero
 20011dc:	000d883a 	mov	r6,zero
 20011e0:	180b883a 	mov	r5,r3
 20011e4:	1009883a 	mov	r4,r2
 20011e8:	20046f00 	call	20046f0 <xQueueGenericSend>
 20011ec:	10800060 	cmpeqi	r2,r2,1
 20011f0:	1000031e 	bne	r2,zero,2001200 <vPolledQueueProducer+0x58>
			{
				/* We should never find the queue full so if we get here there
				has been an error. */
				xError = pdTRUE;
 20011f4:	00800044 	movi	r2,1
 20011f8:	e0bffc15 	stw	r2,-16(fp)
 20011fc:	00000a06 	br	2001228 <vPolledQueueProducer+0x80>
			}
			else
			{
				if( xError == pdFALSE )
 2001200:	e0bffc17 	ldw	r2,-16(fp)
 2001204:	1000051e 	bne	r2,zero,200121c <vPolledQueueProducer+0x74>
				{
					/* If an error has ever been recorded we stop incrementing the
					check variable. */
					portENTER_CRITICAL();
 2001208:	20073180 	call	2007318 <vTaskEnterCritical>
						xPollingProducerCount++;
 200120c:	d0a02617 	ldw	r2,-32616(gp)
 2001210:	10800044 	addi	r2,r2,1
 2001214:	d0a02615 	stw	r2,-32616(gp)
					portEXIT_CRITICAL();
 2001218:	200736c0 	call	200736c <vTaskExitCritical>
				}

				/* Update the value we are going to post next time around. */
				usValue++;
 200121c:	e0bffe0b 	ldhu	r2,-8(fp)
 2001220:	10800044 	addi	r2,r2,1
 2001224:	e0bffe0d 	sth	r2,-8(fp)
uint16_t usValue = ( uint16_t ) 0;
BaseType_t xError = pdFALSE, xLoop;

	for( ;; )
	{
		for( xLoop = 0; xLoop < pollqVALUES_TO_PRODUCE; xLoop++ )
 2001228:	e0bffd17 	ldw	r2,-12(fp)
 200122c:	10800044 	addi	r2,r2,1
 2001230:	e0bffd15 	stw	r2,-12(fp)
 2001234:	e0bffd17 	ldw	r2,-12(fp)
 2001238:	108000d0 	cmplti	r2,r2,3
 200123c:	103fe31e 	bne	r2,zero,20011cc <vPolledQueueProducer+0x24>
			}
		}

		/* Wait before we start posting again to ensure the consumer runs and
		empties the queue. */
		vTaskDelay( pollqPRODUCER_DELAY );
 2001240:	01003204 	movi	r4,200
 2001244:	2005c900 	call	2005c90 <vTaskDelay>
	}
 2001248:	003fde06 	br	20011c4 <vPolledQueueProducer+0x1c>

0200124c <vPolledQueueConsumer>:
}  /*lint !e818 Function prototype must conform to API. */
/*-----------------------------------------------------------*/

static portTASK_FUNCTION( vPolledQueueConsumer, pvParameters )
{
 200124c:	defffa04 	addi	sp,sp,-24
 2001250:	dfc00515 	stw	ra,20(sp)
 2001254:	df000415 	stw	fp,16(sp)
 2001258:	df000404 	addi	fp,sp,16
 200125c:	e13fff15 	stw	r4,-4(fp)
uint16_t usData, usExpectedValue = ( uint16_t ) 0;
 2001260:	e03ffc0d 	sth	zero,-16(fp)
BaseType_t xError = pdFALSE;
 2001264:	e03ffd15 	stw	zero,-12(fp)

	for( ;; )
	{
		/* Loop until the queue is empty. */
		while( uxQueueMessagesWaiting( *( ( QueueHandle_t * ) pvParameters ) ) )
 2001268:	00001c06 	br	20012dc <vPolledQueueConsumer+0x90>
		{
			if( xQueueReceive( *( ( QueueHandle_t * ) pvParameters ), &usData, pollqNO_DELAY ) == pdPASS )
 200126c:	e0bfff17 	ldw	r2,-4(fp)
 2001270:	10800017 	ldw	r2,0(r2)
 2001274:	e0fffe04 	addi	r3,fp,-8
 2001278:	000d883a 	mov	r6,zero
 200127c:	180b883a 	mov	r5,r3
 2001280:	1009883a 	mov	r4,r2
 2001284:	2004a680 	call	2004a68 <xQueueReceive>
 2001288:	10800058 	cmpnei	r2,r2,1
 200128c:	1000131e 	bne	r2,zero,20012dc <vPolledQueueConsumer+0x90>
			{
				if( usData != usExpectedValue )
 2001290:	e0bffe0b 	ldhu	r2,-8(fp)
 2001294:	10ffffcc 	andi	r3,r2,65535
 2001298:	e0bffc0b 	ldhu	r2,-16(fp)
 200129c:	18800526 	beq	r3,r2,20012b4 <vPolledQueueConsumer+0x68>
				{
					/* This is not what we expected to receive so an error has
					occurred. */
					xError = pdTRUE;
 20012a0:	00800044 	movi	r2,1
 20012a4:	e0bffd15 	stw	r2,-12(fp)

					/* Catch-up to the value we received so our next expected
					value should again be correct. */
					usExpectedValue = usData;
 20012a8:	e0bffe0b 	ldhu	r2,-8(fp)
 20012ac:	e0bffc0d 	sth	r2,-16(fp)
 20012b0:	00000706 	br	20012d0 <vPolledQueueConsumer+0x84>
				}
				else
				{
					if( xError == pdFALSE )
 20012b4:	e0bffd17 	ldw	r2,-12(fp)
 20012b8:	1000051e 	bne	r2,zero,20012d0 <vPolledQueueConsumer+0x84>
					{
						/* Only increment the check variable if no errors have
						occurred. */
						portENTER_CRITICAL();
 20012bc:	20073180 	call	2007318 <vTaskEnterCritical>
							xPollingConsumerCount++;
 20012c0:	d0a02517 	ldw	r2,-32620(gp)
 20012c4:	10800044 	addi	r2,r2,1
 20012c8:	d0a02515 	stw	r2,-32620(gp)
						portEXIT_CRITICAL();
 20012cc:	200736c0 	call	200736c <vTaskExitCritical>
					}
				}

				/* Next time round we would expect the number to be one higher. */
				usExpectedValue++;
 20012d0:	e0bffc0b 	ldhu	r2,-16(fp)
 20012d4:	10800044 	addi	r2,r2,1
 20012d8:	e0bffc0d 	sth	r2,-16(fp)
BaseType_t xError = pdFALSE;

	for( ;; )
	{
		/* Loop until the queue is empty. */
		while( uxQueueMessagesWaiting( *( ( QueueHandle_t * ) pvParameters ) ) )
 20012dc:	e0bfff17 	ldw	r2,-4(fp)
 20012e0:	10800017 	ldw	r2,0(r2)
 20012e4:	1009883a 	mov	r4,r2
 20012e8:	20051300 	call	2005130 <uxQueueMessagesWaiting>
 20012ec:	103fdf1e 	bne	r2,zero,200126c <vPolledQueueConsumer+0x20>
			}
		}

		/* Now the queue is empty we block, allowing the producer to place more
		items in the queue. */
		vTaskDelay( pollqCONSUMER_DELAY );
 20012f0:	01002d04 	movi	r4,180
 20012f4:	2005c900 	call	2005c90 <vTaskDelay>
	}
 20012f8:	003fdb06 	br	2001268 <vPolledQueueConsumer+0x1c>

020012fc <xArePollingQueuesStillRunning>:
} /*lint !e818 Function prototype must conform to API. */
/*-----------------------------------------------------------*/

/* This is called to check that all the created tasks are still running with no errors. */
BaseType_t xArePollingQueuesStillRunning( void )
{
 20012fc:	defffe04 	addi	sp,sp,-8
 2001300:	df000115 	stw	fp,4(sp)
 2001304:	df000104 	addi	fp,sp,4

	/* Check both the consumer and producer poll count to check they have both
	been changed since out last trip round.  We do not need a critical section
	around the check variables as this is called from a higher priority than
	the other tasks that access the same variables. */
	if( ( xPollingConsumerCount == pollqINITIAL_VALUE ) ||
 2001308:	d0a02517 	ldw	r2,-32620(gp)
 200130c:	10000226 	beq	r2,zero,2001318 <xArePollingQueuesStillRunning+0x1c>
		( xPollingProducerCount == pollqINITIAL_VALUE )
 2001310:	d0a02617 	ldw	r2,-32616(gp)

	/* Check both the consumer and producer poll count to check they have both
	been changed since out last trip round.  We do not need a critical section
	around the check variables as this is called from a higher priority than
	the other tasks that access the same variables. */
	if( ( xPollingConsumerCount == pollqINITIAL_VALUE ) ||
 2001314:	1000021e 	bne	r2,zero,2001320 <xArePollingQueuesStillRunning+0x24>
		( xPollingProducerCount == pollqINITIAL_VALUE )
	  )
	{
		xReturn = pdFALSE;
 2001318:	e03fff15 	stw	zero,-4(fp)
 200131c:	00000206 	br	2001328 <xArePollingQueuesStillRunning+0x2c>
	}
	else
	{
		xReturn = pdTRUE;
 2001320:	00800044 	movi	r2,1
 2001324:	e0bfff15 	stw	r2,-4(fp)
	}

	/* Set the check variables back down so we know if they have been
	incremented the next time around. */
	xPollingConsumerCount = pollqINITIAL_VALUE;
 2001328:	d0202515 	stw	zero,-32620(gp)
	xPollingProducerCount = pollqINITIAL_VALUE;
 200132c:	d0202615 	stw	zero,-32616(gp)

	return xReturn;
 2001330:	e0bfff17 	ldw	r2,-4(fp)
}
 2001334:	e037883a 	mov	sp,fp
 2001338:	df000017 	ldw	fp,0(sp)
 200133c:	dec00104 	addi	sp,sp,4
 2001340:	f800283a 	ret

02001344 <vStartQueuePeekTasks>:
/* Handles to the test tasks. */
TaskHandle_t xMediumPriorityTask, xHighPriorityTask, xHighestPriorityTask;
/*-----------------------------------------------------------*/

void vStartQueuePeekTasks( void )
{
 2001344:	defffb04 	addi	sp,sp,-20
 2001348:	dfc00415 	stw	ra,16(sp)
 200134c:	df000315 	stw	fp,12(sp)
 2001350:	df000304 	addi	fp,sp,12
QueueHandle_t xQueue;

	/* Create the queue that we are going to use for the test/demo. */
	xQueue = xQueueCreate( qpeekQUEUE_LENGTH, sizeof( uint32_t ) );
 2001354:	000d883a 	mov	r6,zero
 2001358:	01400104 	movi	r5,4
 200135c:	01000144 	movi	r4,5
 2001360:	20043840 	call	2004384 <xQueueGenericCreate>
 2001364:	e0bfff15 	stw	r2,-4(fp)

	if( xQueue != NULL )
 2001368:	e0bfff17 	ldw	r2,-4(fp)
 200136c:	10002a26 	beq	r2,zero,2001418 <vStartQueuePeekTasks+0xd4>
		vQueueAddToRegistry( xQueue, "QPeek_Test_Queue" );

		/* Create the demo tasks and pass it the queue just created.  We are
		passing the queue handle by value so it does not matter that it is declared
		on the stack here. */
		xTaskCreate( prvLowPriorityPeekTask, "PeekL", configMINIMAL_STACK_SIZE, ( void * ) xQueue, qpeekLOW_PRIORITY, NULL );
 2001370:	d8000115 	stw	zero,4(sp)
 2001374:	d8000015 	stw	zero,0(sp)
 2001378:	e1ffff17 	ldw	r7,-4(fp)
 200137c:	01810004 	movi	r6,1024
 2001380:	014080b4 	movhi	r5,514
 2001384:	29672d04 	addi	r5,r5,-25420
 2001388:	01008034 	movhi	r4,512
 200138c:	2105b304 	addi	r4,r4,5836
 2001390:	20056e40 	call	20056e4 <xTaskCreate>
		xTaskCreate( prvMediumPriorityPeekTask, "PeekM", configMINIMAL_STACK_SIZE, ( void * ) xQueue, qpeekMEDIUM_PRIORITY, &xMediumPriorityTask );
 2001394:	d0a02c04 	addi	r2,gp,-32592
 2001398:	d8800115 	stw	r2,4(sp)
 200139c:	00800044 	movi	r2,1
 20013a0:	d8800015 	stw	r2,0(sp)
 20013a4:	e1ffff17 	ldw	r7,-4(fp)
 20013a8:	01810004 	movi	r6,1024
 20013ac:	014080b4 	movhi	r5,514
 20013b0:	29672f04 	addi	r5,r5,-25412
 20013b4:	01008034 	movhi	r4,512
 20013b8:	21059104 	addi	r4,r4,5700
 20013bc:	20056e40 	call	20056e4 <xTaskCreate>
		xTaskCreate( prvHighPriorityPeekTask, "PeekH1", configMINIMAL_STACK_SIZE, ( void * ) xQueue, qpeekHIGH_PRIORITY, &xHighPriorityTask );
 20013c0:	d0a02b04 	addi	r2,gp,-32596
 20013c4:	d8800115 	stw	r2,4(sp)
 20013c8:	00800084 	movi	r2,2
 20013cc:	d8800015 	stw	r2,0(sp)
 20013d0:	e1ffff17 	ldw	r7,-4(fp)
 20013d4:	01810004 	movi	r6,1024
 20013d8:	014080b4 	movhi	r5,514
 20013dc:	29673104 	addi	r5,r5,-25404
 20013e0:	01008034 	movhi	r4,512
 20013e4:	21056104 	addi	r4,r4,5508
 20013e8:	20056e40 	call	20056e4 <xTaskCreate>
		xTaskCreate( prvHighestPriorityPeekTask, "PeekH2", configMINIMAL_STACK_SIZE, ( void * ) xQueue, qpeekHIGHEST_PRIORITY, &xHighestPriorityTask );
 20013ec:	d0a02d04 	addi	r2,gp,-32588
 20013f0:	d8800115 	stw	r2,4(sp)
 20013f4:	008000c4 	movi	r2,3
 20013f8:	d8800015 	stw	r2,0(sp)
 20013fc:	e1ffff17 	ldw	r7,-4(fp)
 2001400:	01810004 	movi	r6,1024
 2001404:	014080b4 	movhi	r5,514
 2001408:	29673304 	addi	r5,r5,-25396
 200140c:	01008034 	movhi	r4,512
 2001410:	21050c04 	addi	r4,r4,5168
 2001414:	20056e40 	call	20056e4 <xTaskCreate>
	}
}
 2001418:	0001883a 	nop
 200141c:	e037883a 	mov	sp,fp
 2001420:	dfc00117 	ldw	ra,4(sp)
 2001424:	df000017 	ldw	fp,0(sp)
 2001428:	dec00204 	addi	sp,sp,8
 200142c:	f800283a 	ret

02001430 <prvHighestPriorityPeekTask>:
/*-----------------------------------------------------------*/

static void prvHighestPriorityPeekTask( void *pvParameters )
{
 2001430:	defffb04 	addi	sp,sp,-20
 2001434:	dfc00415 	stw	ra,16(sp)
 2001438:	df000315 	stw	fp,12(sp)
 200143c:	df000304 	addi	fp,sp,12
 2001440:	e13fff15 	stw	r4,-4(fp)
QueueHandle_t xQueue = ( QueueHandle_t ) pvParameters;
 2001444:	e0bfff17 	ldw	r2,-4(fp)
 2001448:	e0bffd15 	stw	r2,-12(fp)

	for( ;; )
	{
		/* Try peeking from the queue.  The queue should be empty so we will
		block, allowing the high priority task to execute. */
		if( xQueuePeek( xQueue, &ulValue, portMAX_DELAY ) != pdPASS )
 200144c:	e0bffe04 	addi	r2,fp,-8
 2001450:	01bfffc4 	movi	r6,-1
 2001454:	100b883a 	mov	r5,r2
 2001458:	e13ffd17 	ldw	r4,-12(fp)
 200145c:	2004e200 	call	2004e20 <xQueuePeek>
 2001460:	10800060 	cmpeqi	r2,r2,1
 2001464:	1000021e 	bne	r2,zero,2001470 <prvHighestPriorityPeekTask+0x40>
		{
			/* We expected to have received something by the time we unblock. */
			xErrorDetected = pdTRUE;
 2001468:	00800044 	movi	r2,1
 200146c:	d0a02815 	stw	r2,-32608(gp)
		be blocked on the queue.  We unblocked because the low priority task
		wrote a value to the queue, which we should have peeked.  Peeking the
		data (rather than receiving it) will leave the data on the queue, so
		the high priority task should then have also been unblocked, but not
		yet executed. */
		if( ulValue != 0x11223344 )
 2001470:	e0fffe17 	ldw	r3,-8(fp)
 2001474:	008448b4 	movhi	r2,4386
 2001478:	108cd104 	addi	r2,r2,13124
 200147c:	18800226 	beq	r3,r2,2001488 <prvHighestPriorityPeekTask+0x58>
		{
			/* We did not receive the expected value. */
			xErrorDetected = pdTRUE;
 2001480:	00800044 	movi	r2,1
 2001484:	d0a02815 	stw	r2,-32608(gp)
		}

		if( uxQueueMessagesWaiting( xQueue ) != 1 )
 2001488:	e13ffd17 	ldw	r4,-12(fp)
 200148c:	20051300 	call	2005130 <uxQueueMessagesWaiting>
 2001490:	10800060 	cmpeqi	r2,r2,1
 2001494:	1000021e 	bne	r2,zero,20014a0 <prvHighestPriorityPeekTask+0x70>
		{
			/* The message should have been left on the queue. */
			xErrorDetected = pdTRUE;
 2001498:	00800044 	movi	r2,1
 200149c:	d0a02815 	stw	r2,-32608(gp)
		}

		/* Now we are going to actually receive the data, so when the high
		priority task runs it will find the queue empty and return to the
		blocked state. */
		ulValue = 0;
 20014a0:	e03ffe15 	stw	zero,-8(fp)
		if( xQueueReceive( xQueue, &ulValue, qpeekNO_BLOCK ) != pdPASS )
 20014a4:	e0bffe04 	addi	r2,fp,-8
 20014a8:	000d883a 	mov	r6,zero
 20014ac:	100b883a 	mov	r5,r2
 20014b0:	e13ffd17 	ldw	r4,-12(fp)
 20014b4:	2004a680 	call	2004a68 <xQueueReceive>
 20014b8:	10800060 	cmpeqi	r2,r2,1
 20014bc:	1000021e 	bne	r2,zero,20014c8 <prvHighestPriorityPeekTask+0x98>
		{
			/* We expected to receive the value. */
			xErrorDetected = pdTRUE;
 20014c0:	00800044 	movi	r2,1
 20014c4:	d0a02815 	stw	r2,-32608(gp)
		}

		if( ulValue != 0x11223344 )
 20014c8:	e0fffe17 	ldw	r3,-8(fp)
 20014cc:	008448b4 	movhi	r2,4386
 20014d0:	108cd104 	addi	r2,r2,13124
 20014d4:	18800226 	beq	r3,r2,20014e0 <prvHighestPriorityPeekTask+0xb0>
		{
			/* We did not receive the expected value - which should have been
			the same value as was peeked. */
			xErrorDetected = pdTRUE;
 20014d8:	00800044 	movi	r2,1
 20014dc:	d0a02815 	stw	r2,-32608(gp)
		}

		/* Now we will block again as the queue is once more empty.  The low
		priority task can then execute again. */
		if( xQueuePeek( xQueue, &ulValue, portMAX_DELAY ) != pdPASS )
 20014e0:	e0bffe04 	addi	r2,fp,-8
 20014e4:	01bfffc4 	movi	r6,-1
 20014e8:	100b883a 	mov	r5,r2
 20014ec:	e13ffd17 	ldw	r4,-12(fp)
 20014f0:	2004e200 	call	2004e20 <xQueuePeek>
 20014f4:	10800060 	cmpeqi	r2,r2,1
 20014f8:	1000021e 	bne	r2,zero,2001504 <prvHighestPriorityPeekTask+0xd4>
		{
			/* We expected to have received something by the time we unblock. */
			xErrorDetected = pdTRUE;
 20014fc:	00800044 	movi	r2,1
 2001500:	d0a02815 	stw	r2,-32608(gp)
		}

		/* When we get here the low priority task should have again written to the
		queue. */
		if( ulValue != 0x01234567 )
 2001504:	e0fffe17 	ldw	r3,-8(fp)
 2001508:	008048f4 	movhi	r2,291
 200150c:	109159c4 	addi	r2,r2,17767
 2001510:	18800226 	beq	r3,r2,200151c <prvHighestPriorityPeekTask+0xec>
		{
			/* We did not receive the expected value. */
			xErrorDetected = pdTRUE;
 2001514:	00800044 	movi	r2,1
 2001518:	d0a02815 	stw	r2,-32608(gp)
		}

		if( uxQueueMessagesWaiting( xQueue ) != 1 )
 200151c:	e13ffd17 	ldw	r4,-12(fp)
 2001520:	20051300 	call	2005130 <uxQueueMessagesWaiting>
 2001524:	10800060 	cmpeqi	r2,r2,1
 2001528:	1000021e 	bne	r2,zero,2001534 <prvHighestPriorityPeekTask+0x104>
		{
			/* The message should have been left on the queue. */
			xErrorDetected = pdTRUE;
 200152c:	00800044 	movi	r2,1
 2001530:	d0a02815 	stw	r2,-32608(gp)

		/* We only peeked the data, so suspending ourselves now should enable
		the high priority task to also peek the data.  The high priority task
		will have been unblocked when we peeked the data as we left the data
		in the queue. */
		vTaskSuspend( NULL );
 2001534:	0009883a 	mov	r4,zero
 2001538:	2005f500 	call	2005f50 <vTaskSuspend>


		/* This time we are going to do the same as the above test, but the
		high priority task is going to receive the data, rather than peek it.
		This means that the medium priority task should never peek the value. */
		if( xQueuePeek( xQueue, &ulValue, portMAX_DELAY ) != pdPASS )
 200153c:	e0bffe04 	addi	r2,fp,-8
 2001540:	01bfffc4 	movi	r6,-1
 2001544:	100b883a 	mov	r5,r2
 2001548:	e13ffd17 	ldw	r4,-12(fp)
 200154c:	2004e200 	call	2004e20 <xQueuePeek>
 2001550:	10800060 	cmpeqi	r2,r2,1
 2001554:	1000021e 	bne	r2,zero,2001560 <prvHighestPriorityPeekTask+0x130>
		{
			xErrorDetected = pdTRUE;
 2001558:	00800044 	movi	r2,1
 200155c:	d0a02815 	stw	r2,-32608(gp)
		}

		if( ulValue != 0xaabbaabb )
 2001560:	e0fffe17 	ldw	r3,-8(fp)
 2001564:	00aaaf34 	movhi	r2,43708
 2001568:	10aaaec4 	addi	r2,r2,-21829
 200156c:	18800226 	beq	r3,r2,2001578 <prvHighestPriorityPeekTask+0x148>
		{
			xErrorDetected = pdTRUE;
 2001570:	00800044 	movi	r2,1
 2001574:	d0a02815 	stw	r2,-32608(gp)
		}

		vTaskSuspend( NULL );
 2001578:	0009883a 	mov	r4,zero
 200157c:	2005f500 	call	2005f50 <vTaskSuspend>
	}
 2001580:	003fb206 	br	200144c <prvHighestPriorityPeekTask+0x1c>

02001584 <prvHighPriorityPeekTask>:
}
/*-----------------------------------------------------------*/

static void prvHighPriorityPeekTask( void *pvParameters )
{
 2001584:	defffb04 	addi	sp,sp,-20
 2001588:	dfc00415 	stw	ra,16(sp)
 200158c:	df000315 	stw	fp,12(sp)
 2001590:	df000304 	addi	fp,sp,12
 2001594:	e13fff15 	stw	r4,-4(fp)
QueueHandle_t xQueue = ( QueueHandle_t ) pvParameters;
 2001598:	e0bfff17 	ldw	r2,-4(fp)
 200159c:	e0bffd15 	stw	r2,-12(fp)
	for( ;; )
	{
		/* Try peeking from the queue.  The queue should be empty so we will
		block, allowing the medium priority task to execute.  Both the high
		and highest priority tasks will then be blocked on the queue. */
		if( xQueuePeek( xQueue, &ulValue, portMAX_DELAY ) != pdPASS )
 20015a0:	e0bffe04 	addi	r2,fp,-8
 20015a4:	01bfffc4 	movi	r6,-1
 20015a8:	100b883a 	mov	r5,r2
 20015ac:	e13ffd17 	ldw	r4,-12(fp)
 20015b0:	2004e200 	call	2004e20 <xQueuePeek>
 20015b4:	10800060 	cmpeqi	r2,r2,1
 20015b8:	1000021e 	bne	r2,zero,20015c4 <prvHighPriorityPeekTask+0x40>
		{
			/* We expected to have received something by the time we unblock. */
			xErrorDetected = pdTRUE;
 20015bc:	00800044 	movi	r2,1
 20015c0:	d0a02815 	stw	r2,-32608(gp)
		}

		/* When we get here the highest priority task should have peeked the data
		(unblocking this task) then suspended (allowing this task to also peek
		the data). */
		if( ulValue != 0x01234567 )
 20015c4:	e0fffe17 	ldw	r3,-8(fp)
 20015c8:	008048f4 	movhi	r2,291
 20015cc:	109159c4 	addi	r2,r2,17767
 20015d0:	18800226 	beq	r3,r2,20015dc <prvHighPriorityPeekTask+0x58>
		{
			/* We did not receive the expected value. */
			xErrorDetected = pdTRUE;
 20015d4:	00800044 	movi	r2,1
 20015d8:	d0a02815 	stw	r2,-32608(gp)
		}

		if( uxQueueMessagesWaiting( xQueue ) != 1 )
 20015dc:	e13ffd17 	ldw	r4,-12(fp)
 20015e0:	20051300 	call	2005130 <uxQueueMessagesWaiting>
 20015e4:	10800060 	cmpeqi	r2,r2,1
 20015e8:	1000021e 	bne	r2,zero,20015f4 <prvHighPriorityPeekTask+0x70>
		{
			/* The message should have been left on the queue. */
			xErrorDetected = pdTRUE;
 20015ec:	00800044 	movi	r2,1
 20015f0:	d0a02815 	stw	r2,-32608(gp)

		/* We only peeked the data, so suspending ourselves now should enable
		the medium priority task to also peek the data.  The medium priority task
		will have been unblocked when we peeked the data as we left the data
		in the queue. */
		vTaskSuspend( NULL );
 20015f4:	0009883a 	mov	r4,zero
 20015f8:	2005f500 	call	2005f50 <vTaskSuspend>


		/* This time we are going actually receive the value, so the medium
		priority task will never peek the data - we removed it from the queue. */
		if( xQueueReceive( xQueue, &ulValue, portMAX_DELAY ) != pdPASS )
 20015fc:	e0bffe04 	addi	r2,fp,-8
 2001600:	01bfffc4 	movi	r6,-1
 2001604:	100b883a 	mov	r5,r2
 2001608:	e13ffd17 	ldw	r4,-12(fp)
 200160c:	2004a680 	call	2004a68 <xQueueReceive>
 2001610:	10800060 	cmpeqi	r2,r2,1
 2001614:	1000021e 	bne	r2,zero,2001620 <prvHighPriorityPeekTask+0x9c>
		{
			xErrorDetected = pdTRUE;
 2001618:	00800044 	movi	r2,1
 200161c:	d0a02815 	stw	r2,-32608(gp)
		}

		if( ulValue != 0xaabbaabb )
 2001620:	e0fffe17 	ldw	r3,-8(fp)
 2001624:	00aaaf34 	movhi	r2,43708
 2001628:	10aaaec4 	addi	r2,r2,-21829
 200162c:	18800226 	beq	r3,r2,2001638 <prvHighPriorityPeekTask+0xb4>
		{
			xErrorDetected = pdTRUE;
 2001630:	00800044 	movi	r2,1
 2001634:	d0a02815 	stw	r2,-32608(gp)
		}

		vTaskSuspend( NULL );
 2001638:	0009883a 	mov	r4,zero
 200163c:	2005f500 	call	2005f50 <vTaskSuspend>
	}
 2001640:	003fd706 	br	20015a0 <prvHighPriorityPeekTask+0x1c>

02001644 <prvMediumPriorityPeekTask>:
}
/*-----------------------------------------------------------*/

static void prvMediumPriorityPeekTask( void *pvParameters )
{
 2001644:	defffb04 	addi	sp,sp,-20
 2001648:	dfc00415 	stw	ra,16(sp)
 200164c:	df000315 	stw	fp,12(sp)
 2001650:	df000304 	addi	fp,sp,12
 2001654:	e13fff15 	stw	r4,-4(fp)
QueueHandle_t xQueue = ( QueueHandle_t ) pvParameters;
 2001658:	e0bfff17 	ldw	r2,-4(fp)
 200165c:	e0bffd15 	stw	r2,-12(fp)
	for( ;; )
	{
		/* Try peeking from the queue.  The queue should be empty so we will
		block, allowing the low priority task to execute.  The highest, high
		and medium priority tasks will then all be blocked on the queue. */
		if( xQueuePeek( xQueue, &ulValue, portMAX_DELAY ) != pdPASS )
 2001660:	e0bffe04 	addi	r2,fp,-8
 2001664:	01bfffc4 	movi	r6,-1
 2001668:	100b883a 	mov	r5,r2
 200166c:	e13ffd17 	ldw	r4,-12(fp)
 2001670:	2004e200 	call	2004e20 <xQueuePeek>
 2001674:	10800060 	cmpeqi	r2,r2,1
 2001678:	1000021e 	bne	r2,zero,2001684 <prvMediumPriorityPeekTask+0x40>
		{
			/* We expected to have received something by the time we unblock. */
			xErrorDetected = pdTRUE;
 200167c:	00800044 	movi	r2,1
 2001680:	d0a02815 	stw	r2,-32608(gp)
		}

		/* When we get here the high priority task should have peeked the data
		(unblocking this task) then suspended (allowing this task to also peek
		the data). */
		if( ulValue != 0x01234567 )
 2001684:	e0fffe17 	ldw	r3,-8(fp)
 2001688:	008048f4 	movhi	r2,291
 200168c:	109159c4 	addi	r2,r2,17767
 2001690:	18800226 	beq	r3,r2,200169c <prvMediumPriorityPeekTask+0x58>
		{
			/* We did not receive the expected value. */
			xErrorDetected = pdTRUE;
 2001694:	00800044 	movi	r2,1
 2001698:	d0a02815 	stw	r2,-32608(gp)
		}

		if( uxQueueMessagesWaiting( xQueue ) != 1 )
 200169c:	e13ffd17 	ldw	r4,-12(fp)
 20016a0:	20051300 	call	2005130 <uxQueueMessagesWaiting>
 20016a4:	10800060 	cmpeqi	r2,r2,1
 20016a8:	1000021e 	bne	r2,zero,20016b4 <prvMediumPriorityPeekTask+0x70>
		{
			/* The message should have been left on the queue. */
			xErrorDetected = pdTRUE;
 20016ac:	00800044 	movi	r2,1
 20016b0:	d0a02815 	stw	r2,-32608(gp)
		}

		/* Just so we know the test is still running. */
		ulLoopCounter++;
 20016b4:	d0a02917 	ldw	r2,-32604(gp)
 20016b8:	10800044 	addi	r2,r2,1
 20016bc:	d0a02915 	stw	r2,-32604(gp)

		/* Now we can suspend ourselves so the low priority task can execute
		again. */
		vTaskSuspend( NULL );
 20016c0:	0009883a 	mov	r4,zero
 20016c4:	2005f500 	call	2005f50 <vTaskSuspend>
	}
 20016c8:	003fe506 	br	2001660 <prvMediumPriorityPeekTask+0x1c>

020016cc <prvLowPriorityPeekTask>:
}
/*-----------------------------------------------------------*/

static void prvLowPriorityPeekTask( void *pvParameters )
{
 20016cc:	defffb04 	addi	sp,sp,-20
 20016d0:	dfc00415 	stw	ra,16(sp)
 20016d4:	df000315 	stw	fp,12(sp)
 20016d8:	df000304 	addi	fp,sp,12
 20016dc:	e13fff15 	stw	r4,-4(fp)
QueueHandle_t xQueue = ( QueueHandle_t ) pvParameters;
 20016e0:	e0bfff17 	ldw	r2,-4(fp)
 20016e4:	e0bffd15 	stw	r2,-12(fp)

	for( ;; )
	{
		/* Write some data to the queue.  This should unblock the highest
		priority task that is waiting to peek data from the queue. */
		ulValue = 0x11223344;
 20016e8:	008448b4 	movhi	r2,4386
 20016ec:	108cd104 	addi	r2,r2,13124
 20016f0:	e0bffe15 	stw	r2,-8(fp)
		if( xQueueSendToBack( xQueue, &ulValue, qpeekNO_BLOCK ) != pdPASS )
 20016f4:	e0bffe04 	addi	r2,fp,-8
 20016f8:	000f883a 	mov	r7,zero
 20016fc:	000d883a 	mov	r6,zero
 2001700:	100b883a 	mov	r5,r2
 2001704:	e13ffd17 	ldw	r4,-12(fp)
 2001708:	20046f00 	call	20046f0 <xQueueGenericSend>
 200170c:	10800060 	cmpeqi	r2,r2,1
 2001710:	1000021e 	bne	r2,zero,200171c <prvLowPriorityPeekTask+0x50>
		{
			/* We were expecting the queue to be empty so we should not of
			had a problem writing to the queue. */
			xErrorDetected = pdTRUE;
 2001714:	00800044 	movi	r2,1
 2001718:	d0a02815 	stw	r2,-32608(gp)
			taskYIELD();
		#endif

		/* By the time we get here the data should have been removed from
		the queue. */
		if( uxQueueMessagesWaiting( xQueue ) != 0 )
 200171c:	e13ffd17 	ldw	r4,-12(fp)
 2001720:	20051300 	call	2005130 <uxQueueMessagesWaiting>
 2001724:	10000226 	beq	r2,zero,2001730 <prvLowPriorityPeekTask+0x64>
		{
			xErrorDetected = pdTRUE;
 2001728:	00800044 	movi	r2,1
 200172c:	d0a02815 	stw	r2,-32608(gp)
		}

		/* Write another value to the queue, again waking the highest priority
		task that is blocked on the queue. */
		ulValue = 0x01234567;
 2001730:	008048f4 	movhi	r2,291
 2001734:	109159c4 	addi	r2,r2,17767
 2001738:	e0bffe15 	stw	r2,-8(fp)
		if( xQueueSendToBack( xQueue, &ulValue, qpeekNO_BLOCK ) != pdPASS )
 200173c:	e0bffe04 	addi	r2,fp,-8
 2001740:	000f883a 	mov	r7,zero
 2001744:	000d883a 	mov	r6,zero
 2001748:	100b883a 	mov	r5,r2
 200174c:	e13ffd17 	ldw	r4,-12(fp)
 2001750:	20046f00 	call	20046f0 <xQueueGenericSend>
 2001754:	10800060 	cmpeqi	r2,r2,1
 2001758:	1000021e 	bne	r2,zero,2001764 <prvLowPriorityPeekTask+0x98>
		{
			/* We were expecting the queue to be empty so we should not of
			had a problem writing to the queue. */
			xErrorDetected = pdTRUE;
 200175c:	00800044 	movi	r2,1
 2001760:	d0a02815 	stw	r2,-32608(gp)
			taskYIELD();
		#endif

		/* All the other tasks should now have successfully peeked the data.
		The data is still in the queue so we should be able to receive it. */
		ulValue = 0;
 2001764:	e03ffe15 	stw	zero,-8(fp)
		if( xQueueReceive( xQueue, &ulValue, qpeekNO_BLOCK ) != pdPASS )
 2001768:	e0bffe04 	addi	r2,fp,-8
 200176c:	000d883a 	mov	r6,zero
 2001770:	100b883a 	mov	r5,r2
 2001774:	e13ffd17 	ldw	r4,-12(fp)
 2001778:	2004a680 	call	2004a68 <xQueueReceive>
 200177c:	10800060 	cmpeqi	r2,r2,1
 2001780:	1000021e 	bne	r2,zero,200178c <prvLowPriorityPeekTask+0xc0>
		{
			/* We expected to receive the data. */
			xErrorDetected = pdTRUE;
 2001784:	00800044 	movi	r2,1
 2001788:	d0a02815 	stw	r2,-32608(gp)
			/* We did not receive the expected value. */
		}

		/* Lets just delay a while as this is an intensive test as we don't
		want to starve other tests of processing time. */
		vTaskDelay( qpeekSHORT_DELAY );
 200178c:	01000284 	movi	r4,10
 2001790:	2005c900 	call	2005c90 <vTaskDelay>
		/* Unsuspend the other tasks so we can repeat the test - this time
		however not all the other tasks will peek the data as the high
		priority task is actually going to remove it from the queue.  Send
		to front is used just to be different.  As the queue is empty it
		makes no difference to the result. */
		vTaskResume( xMediumPriorityTask );
 2001794:	d0a02c17 	ldw	r2,-32592(gp)
 2001798:	1009883a 	mov	r4,r2
 200179c:	20060b80 	call	20060b8 <vTaskResume>
		vTaskResume( xHighPriorityTask );
 20017a0:	d0a02b17 	ldw	r2,-32596(gp)
 20017a4:	1009883a 	mov	r4,r2
 20017a8:	20060b80 	call	20060b8 <vTaskResume>
		vTaskResume( xHighestPriorityTask );
 20017ac:	d0a02d17 	ldw	r2,-32588(gp)
 20017b0:	1009883a 	mov	r4,r2
 20017b4:	20060b80 	call	20060b8 <vTaskResume>

		#if( configUSE_PREEMPTION == 0 )
			taskYIELD();
		#endif

		ulValue = 0xaabbaabb;
 20017b8:	00aaaf34 	movhi	r2,43708
 20017bc:	10aaaec4 	addi	r2,r2,-21829
 20017c0:	e0bffe15 	stw	r2,-8(fp)
		if( xQueueSendToFront( xQueue, &ulValue, qpeekNO_BLOCK ) != pdPASS )
 20017c4:	e0bffe04 	addi	r2,fp,-8
 20017c8:	01c00044 	movi	r7,1
 20017cc:	000d883a 	mov	r6,zero
 20017d0:	100b883a 	mov	r5,r2
 20017d4:	e13ffd17 	ldw	r4,-12(fp)
 20017d8:	20046f00 	call	20046f0 <xQueueGenericSend>
 20017dc:	10800060 	cmpeqi	r2,r2,1
 20017e0:	1000021e 	bne	r2,zero,20017ec <prvLowPriorityPeekTask+0x120>
		{
			/* We were expecting the queue to be empty so we should not of
			had a problem writing to the queue. */
			xErrorDetected = pdTRUE;
 20017e4:	00800044 	movi	r2,1
 20017e8:	d0a02815 	stw	r2,-32608(gp)
			taskYIELD();
		#endif

		/* This time we should find that the queue is empty.  The high priority
		task actually removed the data rather than just peeking it. */
		if( xQueuePeek( xQueue, &ulValue, qpeekNO_BLOCK ) != errQUEUE_EMPTY )
 20017ec:	e0bffe04 	addi	r2,fp,-8
 20017f0:	000d883a 	mov	r6,zero
 20017f4:	100b883a 	mov	r5,r2
 20017f8:	e13ffd17 	ldw	r4,-12(fp)
 20017fc:	2004e200 	call	2004e20 <xQueuePeek>
 2001800:	10000226 	beq	r2,zero,200180c <prvLowPriorityPeekTask+0x140>
		{
			/* We expected to receive the data. */
			xErrorDetected = pdTRUE;
 2001804:	00800044 	movi	r2,1
 2001808:	d0a02815 	stw	r2,-32608(gp)
		}

		/* Unsuspend the highest and high priority tasks so we can go back
		and repeat the whole thing.  The medium priority task should not be
		suspended as it was not able to peek the data in this last case. */
		vTaskResume( xHighPriorityTask );
 200180c:	d0a02b17 	ldw	r2,-32596(gp)
 2001810:	1009883a 	mov	r4,r2
 2001814:	20060b80 	call	20060b8 <vTaskResume>
		vTaskResume( xHighestPriorityTask );
 2001818:	d0a02d17 	ldw	r2,-32588(gp)
 200181c:	1009883a 	mov	r4,r2
 2001820:	20060b80 	call	20060b8 <vTaskResume>

		/* Lets just delay a while as this is an intensive test as we don't
		want to starve other tests of processing time. */
		vTaskDelay( qpeekSHORT_DELAY );
 2001824:	01000284 	movi	r4,10
 2001828:	2005c900 	call	2005c90 <vTaskDelay>
	}
 200182c:	003fae06 	br	20016e8 <prvLowPriorityPeekTask+0x1c>

02001830 <xAreQueuePeekTasksStillRunning>:
}
/*-----------------------------------------------------------*/

/* This is called to check that all the created tasks are still running. */
BaseType_t xAreQueuePeekTasksStillRunning( void )
{
 2001830:	deffff04 	addi	sp,sp,-4
 2001834:	df000015 	stw	fp,0(sp)
 2001838:	d839883a 	mov	fp,sp
static uint32_t ulLastLoopCounter = 0;

	/* If the demo task is still running then we expect the loopcounter to
	have incremented since this function was last called. */
	if( ulLastLoopCounter == ulLoopCounter )
 200183c:	d0e02a17 	ldw	r3,-32600(gp)
 2001840:	d0a02917 	ldw	r2,-32604(gp)
 2001844:	1880021e 	bne	r3,r2,2001850 <xAreQueuePeekTasksStillRunning+0x20>
	{
		xErrorDetected = pdTRUE;
 2001848:	00800044 	movi	r2,1
 200184c:	d0a02815 	stw	r2,-32608(gp)
	}

	ulLastLoopCounter = ulLoopCounter;
 2001850:	d0a02917 	ldw	r2,-32604(gp)
 2001854:	d0a02a15 	stw	r2,-32600(gp)

	/* Errors detected in the task itself will have latched xErrorDetected
	to true. */

	return ( BaseType_t ) !xErrorDetected;
 2001858:	d0a02817 	ldw	r2,-32608(gp)
 200185c:	1005003a 	cmpeq	r2,r2,zero
 2001860:	10803fcc 	andi	r2,r2,255
}
 2001864:	e037883a 	mov	sp,fp
 2001868:	df000017 	ldw	fp,0(sp)
 200186c:	dec00104 	addi	sp,sp,4
 2001870:	f800283a 	ret

02001874 <vCreateBlockTimeTasks>:
static volatile UBaseType_t xRunIndicator;

/*-----------------------------------------------------------*/

void vCreateBlockTimeTasks( void )
{
 2001874:	defffc04 	addi	sp,sp,-16
 2001878:	dfc00315 	stw	ra,12(sp)
 200187c:	df000215 	stw	fp,8(sp)
 2001880:	df000204 	addi	fp,sp,8
	/* Create the queue on which the two tasks block. */
	xTestQueue = xQueueCreate( bktQUEUE_LENGTH, sizeof( BaseType_t ) );
 2001884:	000d883a 	mov	r6,zero
 2001888:	01400104 	movi	r5,4
 200188c:	01000144 	movi	r4,5
 2001890:	20043840 	call	2004384 <xQueueGenericCreate>
 2001894:	d0a02e15 	stw	r2,-32584(gp)

	if( xTestQueue != NULL )
 2001898:	d0a02e17 	ldw	r2,-32584(gp)
 200189c:	10001526 	beq	r2,zero,20018f4 <vCreateBlockTimeTasks+0x80>
		removed by the pre-processor if configQUEUE_REGISTRY_SIZE is not
		defined or is defined to be less than 1. */
		vQueueAddToRegistry( xTestQueue, "Block_Time_Queue" );

		/* Create the two test tasks. */
		xTaskCreate( vPrimaryBlockTimeTestTask, "BTest1", bktBLOCK_TIME_TASK_STACK_SIZE, NULL, bktPRIMARY_PRIORITY, NULL );
 20018a0:	d8000115 	stw	zero,4(sp)
 20018a4:	00800084 	movi	r2,2
 20018a8:	d8800015 	stw	r2,0(sp)
 20018ac:	000f883a 	mov	r7,zero
 20018b0:	01810004 	movi	r6,1024
 20018b4:	014080b4 	movhi	r5,514
 20018b8:	29673504 	addi	r5,r5,-25388
 20018bc:	01008034 	movhi	r4,512
 20018c0:	21064304 	addi	r4,r4,6412
 20018c4:	20056e40 	call	20056e4 <xTaskCreate>
		xTaskCreate( vSecondaryBlockTimeTestTask, "BTest2", bktBLOCK_TIME_TASK_STACK_SIZE, NULL, bktSECONDARY_PRIORITY, &xSecondary );
 20018c8:	d0a02f04 	addi	r2,gp,-32580
 20018cc:	d8800115 	stw	r2,4(sp)
 20018d0:	00800044 	movi	r2,1
 20018d4:	d8800015 	stw	r2,0(sp)
 20018d8:	000f883a 	mov	r7,zero
 20018dc:	01810004 	movi	r6,1024
 20018e0:	014080b4 	movhi	r5,514
 20018e4:	29673704 	addi	r5,r5,-25380
 20018e8:	01008034 	movhi	r4,512
 20018ec:	21074904 	addi	r4,r4,7460
 20018f0:	20056e40 	call	20056e4 <xTaskCreate>
	}
}
 20018f4:	0001883a 	nop
 20018f8:	e037883a 	mov	sp,fp
 20018fc:	dfc00117 	ldw	ra,4(sp)
 2001900:	df000017 	ldw	fp,0(sp)
 2001904:	dec00204 	addi	sp,sp,8
 2001908:	f800283a 	ret

0200190c <vPrimaryBlockTimeTestTask>:
/*-----------------------------------------------------------*/

static void vPrimaryBlockTimeTestTask( void *pvParameters )
{
 200190c:	defff804 	addi	sp,sp,-32
 2001910:	dfc00715 	stw	ra,28(sp)
 2001914:	df000615 	stw	fp,24(sp)
 2001918:	df000604 	addi	fp,sp,24
 200191c:	e13fff15 	stw	r4,-4(fp)
	{
		/*********************************************************************
		Test 0

		Basic vTaskDelay() and vTaskDelayUntil() tests. */
		prvBasicDelayTests();
 2001920:	2001e500 	call	2001e50 <prvBasicDelayTests>

		/*********************************************************************
		Test 1

		Simple block time wakeup test on queue receives. */
		for( xItem = 0; xItem < bktQUEUE_LENGTH; xItem++ )
 2001924:	e03ffd15 	stw	zero,-12(fp)
 2001928:	00002206 	br	20019b4 <vPrimaryBlockTimeTestTask+0xa8>
		{
			/* The queue is empty. Attempt to read from the queue using a block
			time.  When we wake, ensure the delta in time is as expected. */
			xTimeToBlock = ( TickType_t ) ( bktPRIMARY_BLOCK_TIME << xItem );
 200192c:	e0bffd17 	ldw	r2,-12(fp)
 2001930:	00c00284 	movi	r3,10
 2001934:	1884983a 	sll	r2,r3,r2
 2001938:	e0bffa15 	stw	r2,-24(fp)

			xTimeWhenBlocking = xTaskGetTickCount();
 200193c:	20064e40 	call	20064e4 <xTaskGetTickCount>
 2001940:	e0bffb15 	stw	r2,-20(fp)

			/* We should unblock after xTimeToBlock having not received
			anything on the queue. */
			if( xQueueReceive( xTestQueue, &xData, xTimeToBlock ) != errQUEUE_EMPTY )
 2001944:	d0a02e17 	ldw	r2,-32584(gp)
 2001948:	e0fffe04 	addi	r3,fp,-8
 200194c:	e1bffa17 	ldw	r6,-24(fp)
 2001950:	180b883a 	mov	r5,r3
 2001954:	1009883a 	mov	r4,r2
 2001958:	2004a680 	call	2004a68 <xQueueReceive>
 200195c:	10000226 	beq	r2,zero,2001968 <vPrimaryBlockTimeTestTask+0x5c>
			{
				xErrorOccurred = pdTRUE;
 2001960:	00800044 	movi	r2,1
 2001964:	d0a03215 	stw	r2,-32568(gp)
			}

			/* How long were we blocked for? */
			xBlockedTime = xTaskGetTickCount() - xTimeWhenBlocking;
 2001968:	20064e40 	call	20064e4 <xTaskGetTickCount>
 200196c:	1007883a 	mov	r3,r2
 2001970:	e0bffb17 	ldw	r2,-20(fp)
 2001974:	1885c83a 	sub	r2,r3,r2
 2001978:	e0bffc15 	stw	r2,-16(fp)

			if( xBlockedTime < xTimeToBlock )
 200197c:	e0fffc17 	ldw	r3,-16(fp)
 2001980:	e0bffa17 	ldw	r2,-24(fp)
 2001984:	1880022e 	bgeu	r3,r2,2001990 <vPrimaryBlockTimeTestTask+0x84>
			{
				/* Should not have blocked for less than we requested. */
				xErrorOccurred = pdTRUE;
 2001988:	00800044 	movi	r2,1
 200198c:	d0a03215 	stw	r2,-32568(gp)
			}

			if( xBlockedTime > ( xTimeToBlock + bktALLOWABLE_MARGIN ) )
 2001990:	e0bffa17 	ldw	r2,-24(fp)
 2001994:	10c003c4 	addi	r3,r2,15
 2001998:	e0bffc17 	ldw	r2,-16(fp)
 200199c:	1880022e 	bgeu	r3,r2,20019a8 <vPrimaryBlockTimeTestTask+0x9c>
			{
				/* Should not have blocked for longer than we requested,
				although we would not necessarily run as soon as we were
				unblocked so a margin is allowed. */
				xErrorOccurred = pdTRUE;
 20019a0:	00800044 	movi	r2,1
 20019a4:	d0a03215 	stw	r2,-32568(gp)

		/*********************************************************************
		Test 1

		Simple block time wakeup test on queue receives. */
		for( xItem = 0; xItem < bktQUEUE_LENGTH; xItem++ )
 20019a8:	e0bffd17 	ldw	r2,-12(fp)
 20019ac:	10800044 	addi	r2,r2,1
 20019b0:	e0bffd15 	stw	r2,-12(fp)
 20019b4:	e0bffd17 	ldw	r2,-12(fp)
 20019b8:	10800150 	cmplti	r2,r2,5
 20019bc:	103fdb1e 	bne	r2,zero,200192c <vPrimaryBlockTimeTestTask+0x20>
		Test 2

		Simple block time wakeup test on queue sends.

		First fill the queue.  It should be empty so all sends should pass. */
		for( xItem = 0; xItem < bktQUEUE_LENGTH; xItem++ )
 20019c0:	e03ffd15 	stw	zero,-12(fp)
 20019c4:	00000e06 	br	2001a00 <vPrimaryBlockTimeTestTask+0xf4>
		{
			if( xQueueSend( xTestQueue, &xItem, bktDONT_BLOCK ) != pdPASS )
 20019c8:	d0a02e17 	ldw	r2,-32584(gp)
 20019cc:	e0fffd04 	addi	r3,fp,-12
 20019d0:	000f883a 	mov	r7,zero
 20019d4:	000d883a 	mov	r6,zero
 20019d8:	180b883a 	mov	r5,r3
 20019dc:	1009883a 	mov	r4,r2
 20019e0:	20046f00 	call	20046f0 <xQueueGenericSend>
 20019e4:	10800060 	cmpeqi	r2,r2,1
 20019e8:	1000021e 	bne	r2,zero,20019f4 <vPrimaryBlockTimeTestTask+0xe8>
			{
				xErrorOccurred = pdTRUE;
 20019ec:	00800044 	movi	r2,1
 20019f0:	d0a03215 	stw	r2,-32568(gp)
		Test 2

		Simple block time wakeup test on queue sends.

		First fill the queue.  It should be empty so all sends should pass. */
		for( xItem = 0; xItem < bktQUEUE_LENGTH; xItem++ )
 20019f4:	e0bffd17 	ldw	r2,-12(fp)
 20019f8:	10800044 	addi	r2,r2,1
 20019fc:	e0bffd15 	stw	r2,-12(fp)
 2001a00:	e0bffd17 	ldw	r2,-12(fp)
 2001a04:	10800150 	cmplti	r2,r2,5
 2001a08:	103fef1e 	bne	r2,zero,20019c8 <vPrimaryBlockTimeTestTask+0xbc>
			#if configUSE_PREEMPTION == 0
				taskYIELD();
			#endif
		}

		for( xItem = 0; xItem < bktQUEUE_LENGTH; xItem++ )
 2001a0c:	e03ffd15 	stw	zero,-12(fp)
 2001a10:	00002306 	br	2001aa0 <vPrimaryBlockTimeTestTask+0x194>
		{
			/* The queue is full. Attempt to write to the queue using a block
			time.  When we wake, ensure the delta in time is as expected. */
			xTimeToBlock = ( TickType_t ) ( bktPRIMARY_BLOCK_TIME << xItem );
 2001a14:	e0bffd17 	ldw	r2,-12(fp)
 2001a18:	00c00284 	movi	r3,10
 2001a1c:	1884983a 	sll	r2,r3,r2
 2001a20:	e0bffa15 	stw	r2,-24(fp)

			xTimeWhenBlocking = xTaskGetTickCount();
 2001a24:	20064e40 	call	20064e4 <xTaskGetTickCount>
 2001a28:	e0bffb15 	stw	r2,-20(fp)

			/* We should unblock after xTimeToBlock having not received
			anything on the queue. */
			if( xQueueSend( xTestQueue, &xItem, xTimeToBlock ) != errQUEUE_FULL )
 2001a2c:	d0a02e17 	ldw	r2,-32584(gp)
 2001a30:	e0fffd04 	addi	r3,fp,-12
 2001a34:	000f883a 	mov	r7,zero
 2001a38:	e1bffa17 	ldw	r6,-24(fp)
 2001a3c:	180b883a 	mov	r5,r3
 2001a40:	1009883a 	mov	r4,r2
 2001a44:	20046f00 	call	20046f0 <xQueueGenericSend>
 2001a48:	10000226 	beq	r2,zero,2001a54 <vPrimaryBlockTimeTestTask+0x148>
			{
				xErrorOccurred = pdTRUE;
 2001a4c:	00800044 	movi	r2,1
 2001a50:	d0a03215 	stw	r2,-32568(gp)
			}

			/* How long were we blocked for? */
			xBlockedTime = xTaskGetTickCount() - xTimeWhenBlocking;
 2001a54:	20064e40 	call	20064e4 <xTaskGetTickCount>
 2001a58:	1007883a 	mov	r3,r2
 2001a5c:	e0bffb17 	ldw	r2,-20(fp)
 2001a60:	1885c83a 	sub	r2,r3,r2
 2001a64:	e0bffc15 	stw	r2,-16(fp)

			if( xBlockedTime < xTimeToBlock )
 2001a68:	e0fffc17 	ldw	r3,-16(fp)
 2001a6c:	e0bffa17 	ldw	r2,-24(fp)
 2001a70:	1880022e 	bgeu	r3,r2,2001a7c <vPrimaryBlockTimeTestTask+0x170>
			{
				/* Should not have blocked for less than we requested. */
				xErrorOccurred = pdTRUE;
 2001a74:	00800044 	movi	r2,1
 2001a78:	d0a03215 	stw	r2,-32568(gp)
			}

			if( xBlockedTime > ( xTimeToBlock + bktALLOWABLE_MARGIN ) )
 2001a7c:	e0bffa17 	ldw	r2,-24(fp)
 2001a80:	10c003c4 	addi	r3,r2,15
 2001a84:	e0bffc17 	ldw	r2,-16(fp)
 2001a88:	1880022e 	bgeu	r3,r2,2001a94 <vPrimaryBlockTimeTestTask+0x188>
			{
				/* Should not have blocked for longer than we requested,
				although we would not necessarily run as soon as we were
				unblocked so a margin is allowed. */
				xErrorOccurred = pdTRUE;
 2001a8c:	00800044 	movi	r2,1
 2001a90:	d0a03215 	stw	r2,-32568(gp)
			#if configUSE_PREEMPTION == 0
				taskYIELD();
			#endif
		}

		for( xItem = 0; xItem < bktQUEUE_LENGTH; xItem++ )
 2001a94:	e0bffd17 	ldw	r2,-12(fp)
 2001a98:	10800044 	addi	r2,r2,1
 2001a9c:	e0bffd15 	stw	r2,-12(fp)
 2001aa0:	e0bffd17 	ldw	r2,-12(fp)
 2001aa4:	10800150 	cmplti	r2,r2,5
 2001aa8:	103fda1e 	bne	r2,zero,2001a14 <vPrimaryBlockTimeTestTask+0x108>
		recognise that its block time has not expired and return to block for
		the remains of its block time.

		Wake the other task so it blocks attempting to post to the already
		full queue. */
		xRunIndicator = 0;
 2001aac:	d0203315 	stw	zero,-32564(gp)
		vTaskResume( xSecondary );
 2001ab0:	d0a02f17 	ldw	r2,-32580(gp)
 2001ab4:	1009883a 	mov	r4,r2
 2001ab8:	20060b80 	call	20060b8 <vTaskResume>

		/* We need to wait a little to ensure the other task executes. */
		while( xRunIndicator != bktRUN_INDICATOR )
 2001abc:	00000206 	br	2001ac8 <vPrimaryBlockTimeTestTask+0x1bc>
		{
			/* The other task has not yet executed. */
			vTaskDelay( bktSHORT_WAIT );
 2001ac0:	01000504 	movi	r4,20
 2001ac4:	2005c900 	call	2005c90 <vTaskDelay>
		full queue. */
		xRunIndicator = 0;
		vTaskResume( xSecondary );

		/* We need to wait a little to ensure the other task executes. */
		while( xRunIndicator != bktRUN_INDICATOR )
 2001ac8:	d0a03317 	ldw	r2,-32564(gp)
 2001acc:	10801558 	cmpnei	r2,r2,85
 2001ad0:	103ffb1e 	bne	r2,zero,2001ac0 <vPrimaryBlockTimeTestTask+0x1b4>
		{
			/* The other task has not yet executed. */
			vTaskDelay( bktSHORT_WAIT );
		}
		/* Make sure the other task is blocked on the queue. */
		vTaskDelay( bktSHORT_WAIT );
 2001ad4:	01000504 	movi	r4,20
 2001ad8:	2005c900 	call	2005c90 <vTaskDelay>
		xRunIndicator = 0;
 2001adc:	d0203315 	stw	zero,-32564(gp)

		for( xItem = 0; xItem < bktQUEUE_LENGTH; xItem++ )
 2001ae0:	e03ffd15 	stw	zero,-12(fp)
 2001ae4:	00002a06 	br	2001b90 <vPrimaryBlockTimeTestTask+0x284>
		{
			/* Now when we make space on the queue the other task should wake
			but not execute as this task has higher priority. */
			if( xQueueReceive( xTestQueue, &xData, bktDONT_BLOCK ) != pdPASS )
 2001ae8:	d0a02e17 	ldw	r2,-32584(gp)
 2001aec:	e0fffe04 	addi	r3,fp,-8
 2001af0:	000d883a 	mov	r6,zero
 2001af4:	180b883a 	mov	r5,r3
 2001af8:	1009883a 	mov	r4,r2
 2001afc:	2004a680 	call	2004a68 <xQueueReceive>
 2001b00:	10800060 	cmpeqi	r2,r2,1
 2001b04:	1000021e 	bne	r2,zero,2001b10 <vPrimaryBlockTimeTestTask+0x204>
			{
				xErrorOccurred = pdTRUE;
 2001b08:	00800044 	movi	r2,1
 2001b0c:	d0a03215 	stw	r2,-32568(gp)
			}

			/* Now fill the queue again before the other task gets a chance to
			execute.  If the other task had executed we would find the queue
			full ourselves, and the other task have set xRunIndicator. */
			if( xQueueSend( xTestQueue, &xItem, bktDONT_BLOCK ) != pdPASS )
 2001b10:	d0a02e17 	ldw	r2,-32584(gp)
 2001b14:	e0fffd04 	addi	r3,fp,-12
 2001b18:	000f883a 	mov	r7,zero
 2001b1c:	000d883a 	mov	r6,zero
 2001b20:	180b883a 	mov	r5,r3
 2001b24:	1009883a 	mov	r4,r2
 2001b28:	20046f00 	call	20046f0 <xQueueGenericSend>
 2001b2c:	10800060 	cmpeqi	r2,r2,1
 2001b30:	1000021e 	bne	r2,zero,2001b3c <vPrimaryBlockTimeTestTask+0x230>
			{
				xErrorOccurred = pdTRUE;
 2001b34:	00800044 	movi	r2,1
 2001b38:	d0a03215 	stw	r2,-32568(gp)
			}

			if( xRunIndicator == bktRUN_INDICATOR )
 2001b3c:	d0a03317 	ldw	r2,-32564(gp)
 2001b40:	10801558 	cmpnei	r2,r2,85
 2001b44:	1000021e 	bne	r2,zero,2001b50 <vPrimaryBlockTimeTestTask+0x244>
			{
				/* The other task should not have executed. */
				xErrorOccurred = pdTRUE;
 2001b48:	00800044 	movi	r2,1
 2001b4c:	d0a03215 	stw	r2,-32568(gp)
			}

			/* Raise the priority of the other task so it executes and blocks
			on the queue again. */
			vTaskPrioritySet( xSecondary, bktPRIMARY_PRIORITY + 2 );
 2001b50:	d0a02f17 	ldw	r2,-32580(gp)
 2001b54:	01400104 	movi	r5,4
 2001b58:	1009883a 	mov	r4,r2
 2001b5c:	2005d900 	call	2005d90 <vTaskPrioritySet>

			/* The other task should now have re-blocked without exiting the
			queue function. */
			if( xRunIndicator == bktRUN_INDICATOR )
 2001b60:	d0a03317 	ldw	r2,-32564(gp)
 2001b64:	10801558 	cmpnei	r2,r2,85
 2001b68:	1000021e 	bne	r2,zero,2001b74 <vPrimaryBlockTimeTestTask+0x268>
			{
				/* The other task should not have executed outside of the
				queue function. */
				xErrorOccurred = pdTRUE;
 2001b6c:	00800044 	movi	r2,1
 2001b70:	d0a03215 	stw	r2,-32568(gp)
			}

			/* Set the priority back down. */
			vTaskPrioritySet( xSecondary, bktSECONDARY_PRIORITY );
 2001b74:	d0a02f17 	ldw	r2,-32580(gp)
 2001b78:	01400044 	movi	r5,1
 2001b7c:	1009883a 	mov	r4,r2
 2001b80:	2005d900 	call	2005d90 <vTaskPrioritySet>
		}
		/* Make sure the other task is blocked on the queue. */
		vTaskDelay( bktSHORT_WAIT );
		xRunIndicator = 0;

		for( xItem = 0; xItem < bktQUEUE_LENGTH; xItem++ )
 2001b84:	e0bffd17 	ldw	r2,-12(fp)
 2001b88:	10800044 	addi	r2,r2,1
 2001b8c:	e0bffd15 	stw	r2,-12(fp)
 2001b90:	e0bffd17 	ldw	r2,-12(fp)
 2001b94:	10800150 	cmplti	r2,r2,5
 2001b98:	103fd31e 	bne	r2,zero,2001ae8 <vPrimaryBlockTimeTestTask+0x1dc>
			vTaskPrioritySet( xSecondary, bktSECONDARY_PRIORITY );
		}

		/* Let the other task timeout.  When it unblockes it will check that it
		unblocked at the correct time, then suspend itself. */
		while( xRunIndicator != bktRUN_INDICATOR )
 2001b9c:	00000206 	br	2001ba8 <vPrimaryBlockTimeTestTask+0x29c>
		{
			vTaskDelay( bktSHORT_WAIT );
 2001ba0:	01000504 	movi	r4,20
 2001ba4:	2005c900 	call	2005c90 <vTaskDelay>
			vTaskPrioritySet( xSecondary, bktSECONDARY_PRIORITY );
		}

		/* Let the other task timeout.  When it unblockes it will check that it
		unblocked at the correct time, then suspend itself. */
		while( xRunIndicator != bktRUN_INDICATOR )
 2001ba8:	d0a03317 	ldw	r2,-32564(gp)
 2001bac:	10801558 	cmpnei	r2,r2,85
 2001bb0:	103ffb1e 	bne	r2,zero,2001ba0 <vPrimaryBlockTimeTestTask+0x294>
		{
			vTaskDelay( bktSHORT_WAIT );
		}
		vTaskDelay( bktSHORT_WAIT );
 2001bb4:	01000504 	movi	r4,20
 2001bb8:	2005c900 	call	2005c90 <vTaskDelay>
		xRunIndicator = 0;
 2001bbc:	d0203315 	stw	zero,-32564(gp)

		As per test 3 - but with the send and receive the other way around.
		The other task blocks attempting to read from the queue.

		Empty the queue.  We should find that it is full. */
		for( xItem = 0; xItem < bktQUEUE_LENGTH; xItem++ )
 2001bc0:	e03ffd15 	stw	zero,-12(fp)
 2001bc4:	00000d06 	br	2001bfc <vPrimaryBlockTimeTestTask+0x2f0>
		{
			if( xQueueReceive( xTestQueue, &xData, bktDONT_BLOCK ) != pdPASS )
 2001bc8:	d0a02e17 	ldw	r2,-32584(gp)
 2001bcc:	e0fffe04 	addi	r3,fp,-8
 2001bd0:	000d883a 	mov	r6,zero
 2001bd4:	180b883a 	mov	r5,r3
 2001bd8:	1009883a 	mov	r4,r2
 2001bdc:	2004a680 	call	2004a68 <xQueueReceive>
 2001be0:	10800060 	cmpeqi	r2,r2,1
 2001be4:	1000021e 	bne	r2,zero,2001bf0 <vPrimaryBlockTimeTestTask+0x2e4>
			{
				xErrorOccurred = pdTRUE;
 2001be8:	00800044 	movi	r2,1
 2001bec:	d0a03215 	stw	r2,-32568(gp)

		As per test 3 - but with the send and receive the other way around.
		The other task blocks attempting to read from the queue.

		Empty the queue.  We should find that it is full. */
		for( xItem = 0; xItem < bktQUEUE_LENGTH; xItem++ )
 2001bf0:	e0bffd17 	ldw	r2,-12(fp)
 2001bf4:	10800044 	addi	r2,r2,1
 2001bf8:	e0bffd15 	stw	r2,-12(fp)
 2001bfc:	e0bffd17 	ldw	r2,-12(fp)
 2001c00:	10800150 	cmplti	r2,r2,5
 2001c04:	103ff01e 	bne	r2,zero,2001bc8 <vPrimaryBlockTimeTestTask+0x2bc>
			}
		}

		/* Wake the other task so it blocks attempting to read from  the
		already	empty queue. */
		vTaskResume( xSecondary );
 2001c08:	d0a02f17 	ldw	r2,-32580(gp)
 2001c0c:	1009883a 	mov	r4,r2
 2001c10:	20060b80 	call	20060b8 <vTaskResume>

		/* We need to wait a little to ensure the other task executes. */
		while( xRunIndicator != bktRUN_INDICATOR )
 2001c14:	00000206 	br	2001c20 <vPrimaryBlockTimeTestTask+0x314>
		{
			vTaskDelay( bktSHORT_WAIT );
 2001c18:	01000504 	movi	r4,20
 2001c1c:	2005c900 	call	2005c90 <vTaskDelay>
		/* Wake the other task so it blocks attempting to read from  the
		already	empty queue. */
		vTaskResume( xSecondary );

		/* We need to wait a little to ensure the other task executes. */
		while( xRunIndicator != bktRUN_INDICATOR )
 2001c20:	d0a03317 	ldw	r2,-32564(gp)
 2001c24:	10801558 	cmpnei	r2,r2,85
 2001c28:	103ffb1e 	bne	r2,zero,2001c18 <vPrimaryBlockTimeTestTask+0x30c>
		{
			vTaskDelay( bktSHORT_WAIT );
		}
		vTaskDelay( bktSHORT_WAIT );
 2001c2c:	01000504 	movi	r4,20
 2001c30:	2005c900 	call	2005c90 <vTaskDelay>
		xRunIndicator = 0;
 2001c34:	d0203315 	stw	zero,-32564(gp)

		for( xItem = 0; xItem < bktQUEUE_LENGTH; xItem++ )
 2001c38:	e03ffd15 	stw	zero,-12(fp)
 2001c3c:	00002a06 	br	2001ce8 <vPrimaryBlockTimeTestTask+0x3dc>
		{
			/* Now when we place an item on the queue the other task should
			wake but not execute as this task has higher priority. */
			if( xQueueSend( xTestQueue, &xItem, bktDONT_BLOCK ) != pdPASS )
 2001c40:	d0a02e17 	ldw	r2,-32584(gp)
 2001c44:	e0fffd04 	addi	r3,fp,-12
 2001c48:	000f883a 	mov	r7,zero
 2001c4c:	000d883a 	mov	r6,zero
 2001c50:	180b883a 	mov	r5,r3
 2001c54:	1009883a 	mov	r4,r2
 2001c58:	20046f00 	call	20046f0 <xQueueGenericSend>
 2001c5c:	10800060 	cmpeqi	r2,r2,1
 2001c60:	1000021e 	bne	r2,zero,2001c6c <vPrimaryBlockTimeTestTask+0x360>
			{
				xErrorOccurred = pdTRUE;
 2001c64:	00800044 	movi	r2,1
 2001c68:	d0a03215 	stw	r2,-32568(gp)
			}

			/* Now empty the queue again before the other task gets a chance to
			execute.  If the other task had executed we would find the queue
			empty ourselves, and the other task would be suspended. */
			if( xQueueReceive( xTestQueue, &xData, bktDONT_BLOCK ) != pdPASS )
 2001c6c:	d0a02e17 	ldw	r2,-32584(gp)
 2001c70:	e0fffe04 	addi	r3,fp,-8
 2001c74:	000d883a 	mov	r6,zero
 2001c78:	180b883a 	mov	r5,r3
 2001c7c:	1009883a 	mov	r4,r2
 2001c80:	2004a680 	call	2004a68 <xQueueReceive>
 2001c84:	10800060 	cmpeqi	r2,r2,1
 2001c88:	1000021e 	bne	r2,zero,2001c94 <vPrimaryBlockTimeTestTask+0x388>
			{
				xErrorOccurred = pdTRUE;
 2001c8c:	00800044 	movi	r2,1
 2001c90:	d0a03215 	stw	r2,-32568(gp)
			}

			if( xRunIndicator == bktRUN_INDICATOR )
 2001c94:	d0a03317 	ldw	r2,-32564(gp)
 2001c98:	10801558 	cmpnei	r2,r2,85
 2001c9c:	1000021e 	bne	r2,zero,2001ca8 <vPrimaryBlockTimeTestTask+0x39c>
			{
				/* The other task should not have executed. */
				xErrorOccurred = pdTRUE;
 2001ca0:	00800044 	movi	r2,1
 2001ca4:	d0a03215 	stw	r2,-32568(gp)
			}

			/* Raise the priority of the other task so it executes and blocks
			on the queue again. */
			vTaskPrioritySet( xSecondary, bktPRIMARY_PRIORITY + 2 );
 2001ca8:	d0a02f17 	ldw	r2,-32580(gp)
 2001cac:	01400104 	movi	r5,4
 2001cb0:	1009883a 	mov	r4,r2
 2001cb4:	2005d900 	call	2005d90 <vTaskPrioritySet>

			/* The other task should now have re-blocked without exiting the
			queue function. */
			if( xRunIndicator == bktRUN_INDICATOR )
 2001cb8:	d0a03317 	ldw	r2,-32564(gp)
 2001cbc:	10801558 	cmpnei	r2,r2,85
 2001cc0:	1000021e 	bne	r2,zero,2001ccc <vPrimaryBlockTimeTestTask+0x3c0>
			{
				/* The other task should not have executed outside of the
				queue function. */
				xErrorOccurred = pdTRUE;
 2001cc4:	00800044 	movi	r2,1
 2001cc8:	d0a03215 	stw	r2,-32568(gp)
			}
			vTaskPrioritySet( xSecondary, bktSECONDARY_PRIORITY );
 2001ccc:	d0a02f17 	ldw	r2,-32580(gp)
 2001cd0:	01400044 	movi	r5,1
 2001cd4:	1009883a 	mov	r4,r2
 2001cd8:	2005d900 	call	2005d90 <vTaskPrioritySet>
			vTaskDelay( bktSHORT_WAIT );
		}
		vTaskDelay( bktSHORT_WAIT );
		xRunIndicator = 0;

		for( xItem = 0; xItem < bktQUEUE_LENGTH; xItem++ )
 2001cdc:	e0bffd17 	ldw	r2,-12(fp)
 2001ce0:	10800044 	addi	r2,r2,1
 2001ce4:	e0bffd15 	stw	r2,-12(fp)
 2001ce8:	e0bffd17 	ldw	r2,-12(fp)
 2001cec:	10800150 	cmplti	r2,r2,5
 2001cf0:	103fd31e 	bne	r2,zero,2001c40 <vPrimaryBlockTimeTestTask+0x334>
			vTaskPrioritySet( xSecondary, bktSECONDARY_PRIORITY );
		}

		/* Let the other task timeout.  When it unblockes it will check that it
		unblocked at the correct time, then suspend itself. */
		while( xRunIndicator != bktRUN_INDICATOR )
 2001cf4:	00000206 	br	2001d00 <vPrimaryBlockTimeTestTask+0x3f4>
		{
			vTaskDelay( bktSHORT_WAIT );
 2001cf8:	01000504 	movi	r4,20
 2001cfc:	2005c900 	call	2005c90 <vTaskDelay>
			vTaskPrioritySet( xSecondary, bktSECONDARY_PRIORITY );
		}

		/* Let the other task timeout.  When it unblockes it will check that it
		unblocked at the correct time, then suspend itself. */
		while( xRunIndicator != bktRUN_INDICATOR )
 2001d00:	d0a03317 	ldw	r2,-32564(gp)
 2001d04:	10801558 	cmpnei	r2,r2,85
 2001d08:	103ffb1e 	bne	r2,zero,2001cf8 <vPrimaryBlockTimeTestTask+0x3ec>
		{
			vTaskDelay( bktSHORT_WAIT );
		}
		vTaskDelay( bktSHORT_WAIT );
 2001d0c:	01000504 	movi	r4,20
 2001d10:	2005c900 	call	2005c90 <vTaskDelay>

		xPrimaryCycles++;
 2001d14:	d0a03017 	ldw	r2,-32576(gp)
 2001d18:	10800044 	addi	r2,r2,1
 2001d1c:	d0a03015 	stw	r2,-32576(gp)
	}
 2001d20:	003eff06 	br	2001920 <vPrimaryBlockTimeTestTask+0x14>

02001d24 <vSecondaryBlockTimeTestTask>:
}
/*-----------------------------------------------------------*/

static void vSecondaryBlockTimeTestTask( void *pvParameters )
{
 2001d24:	defffa04 	addi	sp,sp,-24
 2001d28:	dfc00515 	stw	ra,20(sp)
 2001d2c:	df000415 	stw	fp,16(sp)
 2001d30:	df000404 	addi	fp,sp,16
 2001d34:	e13fff15 	stw	r4,-4(fp)
	{
		/*********************************************************************
		Test 0, 1 and 2

		This task does not participate in these tests. */
		vTaskSuspend( NULL );
 2001d38:	0009883a 	mov	r4,zero
 2001d3c:	2005f500 	call	2005f50 <vTaskSuspend>
		Test 3

		The first thing we do is attempt to read from the queue.  It should be
		full so we block.  Note the time before we block so we can check the
		wake time is as per that expected. */
		xTimeWhenBlocking = xTaskGetTickCount();
 2001d40:	20064e40 	call	20064e4 <xTaskGetTickCount>
 2001d44:	e0bffc15 	stw	r2,-16(fp)

		/* We should unblock after bktTIME_TO_BLOCK having not sent anything to
		the queue. */
		xData = 0;
 2001d48:	e03ffe15 	stw	zero,-8(fp)
		xRunIndicator = bktRUN_INDICATOR;
 2001d4c:	00801544 	movi	r2,85
 2001d50:	d0a03315 	stw	r2,-32564(gp)
		if( xQueueSend( xTestQueue, &xData, bktTIME_TO_BLOCK ) != errQUEUE_FULL )
 2001d54:	d0a02e17 	ldw	r2,-32584(gp)
 2001d58:	e0fffe04 	addi	r3,fp,-8
 2001d5c:	000f883a 	mov	r7,zero
 2001d60:	01802bc4 	movi	r6,175
 2001d64:	180b883a 	mov	r5,r3
 2001d68:	1009883a 	mov	r4,r2
 2001d6c:	20046f00 	call	20046f0 <xQueueGenericSend>
 2001d70:	10000226 	beq	r2,zero,2001d7c <vSecondaryBlockTimeTestTask+0x58>
		{
			xErrorOccurred = pdTRUE;
 2001d74:	00800044 	movi	r2,1
 2001d78:	d0a03215 	stw	r2,-32568(gp)
		}

		/* How long were we inside the send function? */
		xBlockedTime = xTaskGetTickCount() - xTimeWhenBlocking;
 2001d7c:	20064e40 	call	20064e4 <xTaskGetTickCount>
 2001d80:	1007883a 	mov	r3,r2
 2001d84:	e0bffc17 	ldw	r2,-16(fp)
 2001d88:	1885c83a 	sub	r2,r3,r2
 2001d8c:	e0bffd15 	stw	r2,-12(fp)

		/* We should not have blocked for less time than bktTIME_TO_BLOCK. */
		if( xBlockedTime < bktTIME_TO_BLOCK )
 2001d90:	e0bffd17 	ldw	r2,-12(fp)
 2001d94:	10802be8 	cmpgeui	r2,r2,175
 2001d98:	1000021e 	bne	r2,zero,2001da4 <vSecondaryBlockTimeTestTask+0x80>
		{
			xErrorOccurred = pdTRUE;
 2001d9c:	00800044 	movi	r2,1
 2001da0:	d0a03215 	stw	r2,-32568(gp)
		}

		/* We should of not blocked for much longer than bktALLOWABLE_MARGIN
		either.  A margin is permitted as we would not necessarily run as
		soon as we unblocked. */
		if( xBlockedTime > ( bktTIME_TO_BLOCK + bktALLOWABLE_MARGIN ) )
 2001da4:	e0bffd17 	ldw	r2,-12(fp)
 2001da8:	10802ff0 	cmpltui	r2,r2,191
 2001dac:	1000021e 	bne	r2,zero,2001db8 <vSecondaryBlockTimeTestTask+0x94>
		{
			xErrorOccurred = pdTRUE;
 2001db0:	00800044 	movi	r2,1
 2001db4:	d0a03215 	stw	r2,-32568(gp)
		}

		/* Suspend ready for test 3. */
		xRunIndicator = bktRUN_INDICATOR;
 2001db8:	00801544 	movi	r2,85
 2001dbc:	d0a03315 	stw	r2,-32564(gp)
		vTaskSuspend( NULL );
 2001dc0:	0009883a 	mov	r4,zero
 2001dc4:	2005f500 	call	2005f50 <vTaskSuspend>

		/*********************************************************************
        Test 4

		As per test three, but with the send and receive reversed. */
		xTimeWhenBlocking = xTaskGetTickCount();
 2001dc8:	20064e40 	call	20064e4 <xTaskGetTickCount>
 2001dcc:	e0bffc15 	stw	r2,-16(fp)

		/* We should unblock after bktTIME_TO_BLOCK having not received
		anything on the queue. */
		xRunIndicator = bktRUN_INDICATOR;
 2001dd0:	00801544 	movi	r2,85
 2001dd4:	d0a03315 	stw	r2,-32564(gp)
		if( xQueueReceive( xTestQueue, &xData, bktTIME_TO_BLOCK ) != errQUEUE_EMPTY )
 2001dd8:	d0a02e17 	ldw	r2,-32584(gp)
 2001ddc:	e0fffe04 	addi	r3,fp,-8
 2001de0:	01802bc4 	movi	r6,175
 2001de4:	180b883a 	mov	r5,r3
 2001de8:	1009883a 	mov	r4,r2
 2001dec:	2004a680 	call	2004a68 <xQueueReceive>
 2001df0:	10000226 	beq	r2,zero,2001dfc <vSecondaryBlockTimeTestTask+0xd8>
		{
			xErrorOccurred = pdTRUE;
 2001df4:	00800044 	movi	r2,1
 2001df8:	d0a03215 	stw	r2,-32568(gp)
		}

		xBlockedTime = xTaskGetTickCount() - xTimeWhenBlocking;
 2001dfc:	20064e40 	call	20064e4 <xTaskGetTickCount>
 2001e00:	1007883a 	mov	r3,r2
 2001e04:	e0bffc17 	ldw	r2,-16(fp)
 2001e08:	1885c83a 	sub	r2,r3,r2
 2001e0c:	e0bffd15 	stw	r2,-12(fp)

		/* We should not have blocked for less time than bktTIME_TO_BLOCK. */
		if( xBlockedTime < bktTIME_TO_BLOCK )
 2001e10:	e0bffd17 	ldw	r2,-12(fp)
 2001e14:	10802be8 	cmpgeui	r2,r2,175
 2001e18:	1000021e 	bne	r2,zero,2001e24 <vSecondaryBlockTimeTestTask+0x100>
		{
			xErrorOccurred = pdTRUE;
 2001e1c:	00800044 	movi	r2,1
 2001e20:	d0a03215 	stw	r2,-32568(gp)
		}

		/* We should of not blocked for much longer than bktALLOWABLE_MARGIN
		either.  A margin is permitted as we would not necessarily run as soon
		as we unblocked. */
		if( xBlockedTime > ( bktTIME_TO_BLOCK + bktALLOWABLE_MARGIN ) )
 2001e24:	e0bffd17 	ldw	r2,-12(fp)
 2001e28:	10802ff0 	cmpltui	r2,r2,191
 2001e2c:	1000021e 	bne	r2,zero,2001e38 <vSecondaryBlockTimeTestTask+0x114>
		{
			xErrorOccurred = pdTRUE;
 2001e30:	00800044 	movi	r2,1
 2001e34:	d0a03215 	stw	r2,-32568(gp)
		}

		xRunIndicator = bktRUN_INDICATOR;
 2001e38:	00801544 	movi	r2,85
 2001e3c:	d0a03315 	stw	r2,-32564(gp)

		xSecondaryCycles++;
 2001e40:	d0a03117 	ldw	r2,-32572(gp)
 2001e44:	10800044 	addi	r2,r2,1
 2001e48:	d0a03115 	stw	r2,-32572(gp)
	}
 2001e4c:	003fba06 	br	2001d38 <vSecondaryBlockTimeTestTask+0x14>

02001e50 <prvBasicDelayTests>:
}
/*-----------------------------------------------------------*/

static void prvBasicDelayTests( void )
{
 2001e50:	defff604 	addi	sp,sp,-40
 2001e54:	dfc00915 	stw	ra,36(sp)
 2001e58:	df000815 	stw	fp,32(sp)
 2001e5c:	df000804 	addi	fp,sp,32
TickType_t xPreTime, xPostTime, x, xLastUnblockTime, xExpectedUnblockTime;
const TickType_t xPeriod = 75, xCycles = 5, xAllowableMargin = ( bktALLOWABLE_MARGIN >> 1 );
 2001e60:	008012c4 	movi	r2,75
 2001e64:	e0bff915 	stw	r2,-28(fp)
 2001e68:	00800144 	movi	r2,5
 2001e6c:	e0bffa15 	stw	r2,-24(fp)
 2001e70:	008001c4 	movi	r2,7
 2001e74:	e0bffb15 	stw	r2,-20(fp)

	/* Temporarily increase priority so the timing is more accurate, but not so
	high as to disrupt the timer tests. */
	vTaskPrioritySet( NULL, configTIMER_TASK_PRIORITY - 1 );
 2001e78:	014000c4 	movi	r5,3
 2001e7c:	0009883a 	mov	r4,zero
 2001e80:	2005d900 	call	2005d90 <vTaskPrioritySet>

	/* Crude check to too that vTaskDelay() blocks for the expected period. */
	xPreTime = xTaskGetTickCount();
 2001e84:	20064e40 	call	20064e4 <xTaskGetTickCount>
 2001e88:	e0bffc15 	stw	r2,-16(fp)
	vTaskDelay( bktTIME_TO_BLOCK );
 2001e8c:	01002bc4 	movi	r4,175
 2001e90:	2005c900 	call	2005c90 <vTaskDelay>
	xPostTime = xTaskGetTickCount();
 2001e94:	20064e40 	call	20064e4 <xTaskGetTickCount>
 2001e98:	e0bffd15 	stw	r2,-12(fp)

	/* The priority is higher, so the allowable margin is halved when compared
	to the other tests in this file. */
	if( ( xPostTime - xPreTime ) > ( bktTIME_TO_BLOCK + xAllowableMargin ) )
 2001e9c:	e0fffd17 	ldw	r3,-12(fp)
 2001ea0:	e0bffc17 	ldw	r2,-16(fp)
 2001ea4:	1885c83a 	sub	r2,r3,r2
 2001ea8:	e0fffb17 	ldw	r3,-20(fp)
 2001eac:	18c02bc4 	addi	r3,r3,175
 2001eb0:	1880022e 	bgeu	r3,r2,2001ebc <prvBasicDelayTests+0x6c>
	{
		xErrorOccurred = pdTRUE;
 2001eb4:	00800044 	movi	r2,1
 2001eb8:	d0a03215 	stw	r2,-32568(gp)
	}

	/* Now crude tests to check the vTaskDelayUntil() functionality. */
	xPostTime = xTaskGetTickCount();
 2001ebc:	20064e40 	call	20064e4 <xTaskGetTickCount>
 2001ec0:	e0bffd15 	stw	r2,-12(fp)
	xLastUnblockTime = xPostTime;
 2001ec4:	e0bffd17 	ldw	r2,-12(fp)
 2001ec8:	e0bfff15 	stw	r2,-4(fp)

	for( x = 0; x < xCycles; x++ )
 2001ecc:	e03ff815 	stw	zero,-32(fp)
 2001ed0:	00001a06 	br	2001f3c <prvBasicDelayTests+0xec>
	{
		/* Calculate the next expected unblock time from the time taken before
		this loop was entered. */
		xExpectedUnblockTime = xPostTime + ( x * xPeriod );
 2001ed4:	e17ff917 	ldw	r5,-28(fp)
 2001ed8:	e13ff817 	ldw	r4,-32(fp)
 2001edc:	20083200 	call	2008320 <__mulsi3>
 2001ee0:	1007883a 	mov	r3,r2
 2001ee4:	e0bffd17 	ldw	r2,-12(fp)
 2001ee8:	1885883a 	add	r2,r3,r2
 2001eec:	e0bffe15 	stw	r2,-8(fp)

		vTaskDelayUntil( &xLastUnblockTime, xPeriod );
 2001ef0:	e0bfff04 	addi	r2,fp,-4
 2001ef4:	e17ff917 	ldw	r5,-28(fp)
 2001ef8:	1009883a 	mov	r4,r2
 2001efc:	2005ba00 	call	2005ba0 <vTaskDelayUntil>

		if( ( xTaskGetTickCount() - xExpectedUnblockTime ) > ( bktTIME_TO_BLOCK + xAllowableMargin ) )
 2001f00:	20064e40 	call	20064e4 <xTaskGetTickCount>
 2001f04:	1007883a 	mov	r3,r2
 2001f08:	e0bffe17 	ldw	r2,-8(fp)
 2001f0c:	1885c83a 	sub	r2,r3,r2
 2001f10:	e0fffb17 	ldw	r3,-20(fp)
 2001f14:	18c02bc4 	addi	r3,r3,175
 2001f18:	1880022e 	bgeu	r3,r2,2001f24 <prvBasicDelayTests+0xd4>
		{
			xErrorOccurred = pdTRUE;
 2001f1c:	00800044 	movi	r2,1
 2001f20:	d0a03215 	stw	r2,-32568(gp)
		}

		xPrimaryCycles++;
 2001f24:	d0a03017 	ldw	r2,-32576(gp)
 2001f28:	10800044 	addi	r2,r2,1
 2001f2c:	d0a03015 	stw	r2,-32576(gp)

	/* Now crude tests to check the vTaskDelayUntil() functionality. */
	xPostTime = xTaskGetTickCount();
	xLastUnblockTime = xPostTime;

	for( x = 0; x < xCycles; x++ )
 2001f30:	e0bff817 	ldw	r2,-32(fp)
 2001f34:	10800044 	addi	r2,r2,1
 2001f38:	e0bff815 	stw	r2,-32(fp)
 2001f3c:	e0fff817 	ldw	r3,-32(fp)
 2001f40:	e0bffa17 	ldw	r2,-24(fp)
 2001f44:	18bfe336 	bltu	r3,r2,2001ed4 <prvBasicDelayTests+0x84>

		xPrimaryCycles++;
	}

	/* Reset to the original task priority ready for the other tests. */
	vTaskPrioritySet( NULL, bktPRIMARY_PRIORITY );
 2001f48:	01400084 	movi	r5,2
 2001f4c:	0009883a 	mov	r4,zero
 2001f50:	2005d900 	call	2005d90 <vTaskPrioritySet>
}
 2001f54:	0001883a 	nop
 2001f58:	e037883a 	mov	sp,fp
 2001f5c:	dfc00117 	ldw	ra,4(sp)
 2001f60:	df000017 	ldw	fp,0(sp)
 2001f64:	dec00204 	addi	sp,sp,8
 2001f68:	f800283a 	ret

02001f6c <xAreBlockTimeTestTasksStillRunning>:
/*-----------------------------------------------------------*/

BaseType_t xAreBlockTimeTestTasksStillRunning( void )
{
 2001f6c:	defffe04 	addi	sp,sp,-8
 2001f70:	df000115 	stw	fp,4(sp)
 2001f74:	df000104 	addi	fp,sp,4
static BaseType_t xLastPrimaryCycleCount = 0, xLastSecondaryCycleCount = 0;
BaseType_t xReturn = pdPASS;
 2001f78:	00800044 	movi	r2,1
 2001f7c:	e0bfff15 	stw	r2,-4(fp)

	/* Have both tasks performed at least one cycle since this function was
	last called? */
	if( xPrimaryCycles == xLastPrimaryCycleCount )
 2001f80:	d0e03017 	ldw	r3,-32576(gp)
 2001f84:	d0a03417 	ldw	r2,-32560(gp)
 2001f88:	1880011e 	bne	r3,r2,2001f90 <xAreBlockTimeTestTasksStillRunning+0x24>
	{
		xReturn = pdFAIL;
 2001f8c:	e03fff15 	stw	zero,-4(fp)
	}

	if( xSecondaryCycles == xLastSecondaryCycleCount )
 2001f90:	d0e03117 	ldw	r3,-32572(gp)
 2001f94:	d0a03517 	ldw	r2,-32556(gp)
 2001f98:	1880011e 	bne	r3,r2,2001fa0 <xAreBlockTimeTestTasksStillRunning+0x34>
	{
		xReturn = pdFAIL;
 2001f9c:	e03fff15 	stw	zero,-4(fp)
	}

	if( xErrorOccurred == pdTRUE )
 2001fa0:	d0a03217 	ldw	r2,-32568(gp)
 2001fa4:	10800058 	cmpnei	r2,r2,1
 2001fa8:	1000011e 	bne	r2,zero,2001fb0 <xAreBlockTimeTestTasksStillRunning+0x44>
	{
		xReturn = pdFAIL;
 2001fac:	e03fff15 	stw	zero,-4(fp)
	}

	xLastSecondaryCycleCount = xSecondaryCycles;
 2001fb0:	d0a03117 	ldw	r2,-32572(gp)
 2001fb4:	d0a03515 	stw	r2,-32556(gp)
	xLastPrimaryCycleCount = xPrimaryCycles;
 2001fb8:	d0a03017 	ldw	r2,-32576(gp)
 2001fbc:	d0a03415 	stw	r2,-32560(gp)

	return xReturn;
 2001fc0:	e0bfff17 	ldw	r2,-4(fp)
}
 2001fc4:	e037883a 	mov	sp,fp
 2001fc8:	df000017 	ldw	fp,0(sp)
 2001fcc:	dec00104 	addi	sp,sp,4
 2001fd0:	f800283a 	ret

02001fd4 <vAltStartComTestTasks>:
static volatile UBaseType_t uxRxLoops = comINITIAL_RX_COUNT_VALUE;

/*-----------------------------------------------------------*/

void vAltStartComTestTasks( UBaseType_t uxPriority, uint32_t ulBaudRate, UBaseType_t uxLED )
{
 2001fd4:	defff904 	addi	sp,sp,-28
 2001fd8:	dfc00615 	stw	ra,24(sp)
 2001fdc:	df000515 	stw	fp,20(sp)
 2001fe0:	df000504 	addi	fp,sp,20
 2001fe4:	e13ffd15 	stw	r4,-12(fp)
 2001fe8:	e17ffe15 	stw	r5,-8(fp)
 2001fec:	e1bfff15 	stw	r6,-4(fp)
	/* Initialise the com port then spawn the Rx and Tx tasks. */
	uxBaseLED = uxLED;
 2001ff0:	e0bfff17 	ldw	r2,-4(fp)
 2001ff4:	d0a03715 	stw	r2,-32548(gp)
	xSerialPortInitMinimal( ulBaudRate, comBUFFER_LEN );
 2001ff8:	01400604 	movi	r5,24
 2001ffc:	e13ffe17 	ldw	r4,-8(fp)
 2002000:	2007c200 	call	2007c20 <xSerialPortInitMinimal>

	/* The Tx task is spawned with a lower priority than the Rx task. */
	xTaskCreate( vComTxTask, "COMTx", comSTACK_SIZE, NULL, uxPriority - 1, ( TaskHandle_t * ) NULL );
 2002004:	e0bffd17 	ldw	r2,-12(fp)
 2002008:	10bfffc4 	addi	r2,r2,-1
 200200c:	d8000115 	stw	zero,4(sp)
 2002010:	d8800015 	stw	r2,0(sp)
 2002014:	000f883a 	mov	r7,zero
 2002018:	01810004 	movi	r6,1024
 200201c:	014080b4 	movhi	r5,514
 2002020:	29673904 	addi	r5,r5,-25372
 2002024:	01008034 	movhi	r4,512
 2002028:	21081c04 	addi	r4,r4,8304
 200202c:	20056e40 	call	20056e4 <xTaskCreate>
	xTaskCreate( vComRxTask, "COMRx", comSTACK_SIZE, NULL, uxPriority, ( TaskHandle_t * ) NULL );
 2002030:	d8000115 	stw	zero,4(sp)
 2002034:	e0bffd17 	ldw	r2,-12(fp)
 2002038:	d8800015 	stw	r2,0(sp)
 200203c:	000f883a 	mov	r7,zero
 2002040:	01810004 	movi	r6,1024
 2002044:	014080b4 	movhi	r5,514
 2002048:	29673b04 	addi	r5,r5,-25364
 200204c:	01008034 	movhi	r4,512
 2002050:	21084904 	addi	r4,r4,8484
 2002054:	20056e40 	call	20056e4 <xTaskCreate>
}
 2002058:	0001883a 	nop
 200205c:	e037883a 	mov	sp,fp
 2002060:	dfc00117 	ldw	ra,4(sp)
 2002064:	df000017 	ldw	fp,0(sp)
 2002068:	dec00204 	addi	sp,sp,8
 200206c:	f800283a 	ret

02002070 <vComTxTask>:
/*-----------------------------------------------------------*/

static portTASK_FUNCTION( vComTxTask, pvParameters )
{
 2002070:	defffb04 	addi	sp,sp,-20
 2002074:	dfc00415 	stw	ra,16(sp)
 2002078:	df000315 	stw	fp,12(sp)
 200207c:	df000304 	addi	fp,sp,12
 2002080:	e13fff15 	stw	r4,-4(fp)

	for( ;; )
	{
		/* Simply transmit a sequence of characters from comFIRST_BYTE to
		comLAST_BYTE. */
		for( cByteToSend = comFIRST_BYTE; cByteToSend <= comLAST_BYTE; cByteToSend++ )
 2002084:	00801044 	movi	r2,65
 2002088:	e0bffd05 	stb	r2,-12(fp)
 200208c:	00000e06 	br	20020c8 <vComTxTask+0x58>
		{
			if( xSerialPutChar( xPort, cByteToSend, comNO_BLOCK ) == pdPASS )
 2002090:	d0a03617 	ldw	r2,-32552(gp)
 2002094:	e0fffd07 	ldb	r3,-12(fp)
 2002098:	000d883a 	mov	r6,zero
 200209c:	180b883a 	mov	r5,r3
 20020a0:	1009883a 	mov	r4,r2
 20020a4:	2007d700 	call	2007d70 <xSerialPutChar>
 20020a8:	10800058 	cmpnei	r2,r2,1
 20020ac:	1000031e 	bne	r2,zero,20020bc <vComTxTask+0x4c>
			{
				vParTestToggleLED( uxBaseLED + comTX_LED_OFFSET );
 20020b0:	d0a03717 	ldw	r2,-32548(gp)
 20020b4:	1009883a 	mov	r4,r2
 20020b8:	20037700 	call	2003770 <vParTestToggleLED>

	for( ;; )
	{
		/* Simply transmit a sequence of characters from comFIRST_BYTE to
		comLAST_BYTE. */
		for( cByteToSend = comFIRST_BYTE; cByteToSend <= comLAST_BYTE; cByteToSend++ )
 20020bc:	e0bffd03 	ldbu	r2,-12(fp)
 20020c0:	10800044 	addi	r2,r2,1
 20020c4:	e0bffd05 	stb	r2,-12(fp)
 20020c8:	e0bffd07 	ldb	r2,-12(fp)
 20020cc:	10801650 	cmplti	r2,r2,89
 20020d0:	103fef1e 	bne	r2,zero,2002090 <vComTxTask+0x20>
				vParTestToggleLED( uxBaseLED + comTX_LED_OFFSET );
			}
		}

		/* Turn the LED off while we are not doing anything. */
		vParTestSetLED( uxBaseLED + comTX_LED_OFFSET, pdFALSE );
 20020d4:	d0a03717 	ldw	r2,-32548(gp)
 20020d8:	000b883a 	mov	r5,zero
 20020dc:	1009883a 	mov	r4,r2
 20020e0:	20036d00 	call	20036d0 <vParTestSetLED>

		/* We have posted all the characters in the string - wait before
		re-sending.  Wait a pseudo-random time as this will provide a better
		test. */
		xTimeToWait = xTaskGetTickCount() + comOFFSET_TIME;
 20020e4:	20064e40 	call	20064e4 <xTaskGetTickCount>
 20020e8:	108000c4 	addi	r2,r2,3
 20020ec:	e0bffe15 	stw	r2,-8(fp)

		/* Make sure we don't wait too long... */
		xTimeToWait %= comTX_MAX_BLOCK_TIME;
 20020f0:	e0bffe17 	ldw	r2,-8(fp)
 20020f4:	01402584 	movi	r5,150
 20020f8:	1009883a 	mov	r4,r2
 20020fc:	20082c80 	call	20082c8 <__umodsi3>
 2002100:	e0bffe15 	stw	r2,-8(fp)

		/* ...but we do want to wait. */
		if( xTimeToWait < comTX_MIN_BLOCK_TIME )
 2002104:	e0bffe17 	ldw	r2,-8(fp)
 2002108:	10800ca8 	cmpgeui	r2,r2,50
 200210c:	1000021e 	bne	r2,zero,2002118 <vComTxTask+0xa8>
		{
			xTimeToWait = comTX_MIN_BLOCK_TIME;
 2002110:	00800c84 	movi	r2,50
 2002114:	e0bffe15 	stw	r2,-8(fp)
		}

		vTaskDelay( xTimeToWait );
 2002118:	e13ffe17 	ldw	r4,-8(fp)
 200211c:	2005c900 	call	2005c90 <vTaskDelay>
	}
 2002120:	003fd806 	br	2002084 <vComTxTask+0x14>

02002124 <vComRxTask>:
} /*lint !e715 !e818 pvParameters is required for a task function even if it is not referenced. */
/*-----------------------------------------------------------*/

static portTASK_FUNCTION( vComRxTask, pvParameters )
{
 2002124:	defff904 	addi	sp,sp,-28
 2002128:	dfc00615 	stw	ra,24(sp)
 200212c:	df000515 	stw	fp,20(sp)
 2002130:	df000504 	addi	fp,sp,20
 2002134:	e13fff15 	stw	r4,-4(fp)
signed char cExpectedByte, cByteRxed;
BaseType_t xResyncRequired = pdFALSE, xErrorOccurred = pdFALSE;
 2002138:	e03ffc15 	stw	zero,-16(fp)
 200213c:	e03ffd15 	stw	zero,-12(fp)

	for( ;; )
	{
		/* We expect to receive the characters from comFIRST_BYTE to
		comLAST_BYTE in an incrementing order.  Loop to receive each byte. */
		for( cExpectedByte = comFIRST_BYTE; cExpectedByte <= comLAST_BYTE; cExpectedByte++ )
 2002140:	00801044 	movi	r2,65
 2002144:	e0bffb05 	stb	r2,-20(fp)
 2002148:	00001806 	br	20021ac <vComRxTask+0x88>
		{
			/* Block on the queue that contains received bytes until a byte is
			available. */
			if( xSerialGetChar( xPort, &cByteRxed, comRX_BLOCK_TIME ) )
 200214c:	d0a03617 	ldw	r2,-32552(gp)
 2002150:	e0fffe04 	addi	r3,fp,-8
 2002154:	01bfffd4 	movui	r6,65535
 2002158:	180b883a 	mov	r5,r3
 200215c:	1009883a 	mov	r4,r2
 2002160:	2007cfc0 	call	2007cfc <xSerialGetChar>
 2002164:	10000e26 	beq	r2,zero,20021a0 <vComRxTask+0x7c>
			{
				/* Was this the byte we were expecting?  If so, toggle the LED,
				otherwise we are out on sync and should break out of the loop
				until the expected character sequence is about to restart. */
				if( cByteRxed == cExpectedByte )
 2002168:	e0bffe03 	ldbu	r2,-8(fp)
 200216c:	10c03fcc 	andi	r3,r2,255
 2002170:	18c0201c 	xori	r3,r3,128
 2002174:	18ffe004 	addi	r3,r3,-128
 2002178:	e0bffb07 	ldb	r2,-20(fp)
 200217c:	1880051e 	bne	r3,r2,2002194 <vComRxTask+0x70>
				{
					vParTestToggleLED( uxBaseLED + comRX_LED_OFFSET );
 2002180:	d0a03717 	ldw	r2,-32548(gp)
 2002184:	10800044 	addi	r2,r2,1
 2002188:	1009883a 	mov	r4,r2
 200218c:	20037700 	call	2003770 <vParTestToggleLED>
 2002190:	00000306 	br	20021a0 <vComRxTask+0x7c>
				}
				else
				{
					xResyncRequired = pdTRUE;
 2002194:	00800044 	movi	r2,1
 2002198:	e0bffc15 	stw	r2,-16(fp)
					break; /*lint !e960 Non-switch break allowed. */
 200219c:	00000606 	br	20021b8 <vComRxTask+0x94>

	for( ;; )
	{
		/* We expect to receive the characters from comFIRST_BYTE to
		comLAST_BYTE in an incrementing order.  Loop to receive each byte. */
		for( cExpectedByte = comFIRST_BYTE; cExpectedByte <= comLAST_BYTE; cExpectedByte++ )
 20021a0:	e0bffb03 	ldbu	r2,-20(fp)
 20021a4:	10800044 	addi	r2,r2,1
 20021a8:	e0bffb05 	stb	r2,-20(fp)
 20021ac:	e0bffb07 	ldb	r2,-20(fp)
 20021b0:	10801650 	cmplti	r2,r2,89
 20021b4:	103fe51e 	bne	r2,zero,200214c <vComRxTask+0x28>
				}
			}
		}

		/* Turn the LED off while we are not doing anything. */
		vParTestSetLED( uxBaseLED + comRX_LED_OFFSET, pdFALSE );
 20021b8:	d0a03717 	ldw	r2,-32548(gp)
 20021bc:	10800044 	addi	r2,r2,1
 20021c0:	000b883a 	mov	r5,zero
 20021c4:	1009883a 	mov	r4,r2
 20021c8:	20036d00 	call	20036d0 <vParTestSetLED>

		/* Did we break out of the loop because the characters were received in
		an unexpected order?  If so wait here until the character sequence is
		about to restart. */
		if( xResyncRequired == pdTRUE )
 20021cc:	e0bffc17 	ldw	r2,-16(fp)
 20021d0:	10800058 	cmpnei	r2,r2,1
 20021d4:	1000121e 	bne	r2,zero,2002220 <vComRxTask+0xfc>
		{
			while( cByteRxed != comLAST_BYTE )
 20021d8:	00000606 	br	20021f4 <vComRxTask+0xd0>
			{
				/* Block until the next char is available. */
				xSerialGetChar( xPort, &cByteRxed, comRX_BLOCK_TIME );
 20021dc:	d0a03617 	ldw	r2,-32552(gp)
 20021e0:	e0fffe04 	addi	r3,fp,-8
 20021e4:	01bfffd4 	movui	r6,65535
 20021e8:	180b883a 	mov	r5,r3
 20021ec:	1009883a 	mov	r4,r2
 20021f0:	2007cfc0 	call	2007cfc <xSerialGetChar>
		/* Did we break out of the loop because the characters were received in
		an unexpected order?  If so wait here until the character sequence is
		about to restart. */
		if( xResyncRequired == pdTRUE )
		{
			while( cByteRxed != comLAST_BYTE )
 20021f4:	e0bffe03 	ldbu	r2,-8(fp)
 20021f8:	10803fcc 	andi	r2,r2,255
 20021fc:	1080201c 	xori	r2,r2,128
 2002200:	10bfe004 	addi	r2,r2,-128
 2002204:	10801618 	cmpnei	r2,r2,88
 2002208:	103ff41e 	bne	r2,zero,20021dc <vComRxTask+0xb8>

			/* Note that an error occurred which caused us to have to resync.
			We use this to stop incrementing the loop counter so
			sAreComTestTasksStillRunning() will return false - indicating an
			error. */
			xErrorOccurred++;
 200220c:	e0bffd17 	ldw	r2,-12(fp)
 2002210:	10800044 	addi	r2,r2,1
 2002214:	e0bffd15 	stw	r2,-12(fp)

			/* We have now resynced with the Tx task and can continue. */
			xResyncRequired = pdFALSE;
 2002218:	e03ffc15 	stw	zero,-16(fp)
 200221c:	003fc806 	br	2002140 <vComRxTask+0x1c>
		}
		else
		{
			if( xErrorOccurred < comTOTAL_PERMISSIBLE_ERRORS )
 2002220:	e0bffd17 	ldw	r2,-12(fp)
 2002224:	10800088 	cmpgei	r2,r2,2
 2002228:	103fc51e 	bne	r2,zero,2002140 <vComRxTask+0x1c>
				occurring (i.e. an unexpected character being received) will
				prevent this counter being incremented for the rest of the
				execution.   Don't worry about mutual exclusion on this
				variable - it doesn't really matter as we just want it
				to change. */
				uxRxLoops++;
 200222c:	d0a03817 	ldw	r2,-32544(gp)
 2002230:	10800044 	addi	r2,r2,1
 2002234:	d0a03815 	stw	r2,-32544(gp)
			}
		}
	}
 2002238:	003fc106 	br	2002140 <vComRxTask+0x1c>

0200223c <xAreComTestTasksStillRunning>:
} /*lint !e715 !e818 pvParameters is required for a task function even if it is not referenced. */
/*-----------------------------------------------------------*/

BaseType_t xAreComTestTasksStillRunning( void )
{
 200223c:	defffe04 	addi	sp,sp,-8
 2002240:	df000115 	stw	fp,4(sp)
 2002244:	df000104 	addi	fp,sp,4
BaseType_t xReturn;

	/* If the count of successful reception loops has not changed than at
	some time an error occurred (i.e. a character was received out of sequence)
	and we will return false. */
	if( uxRxLoops == comINITIAL_RX_COUNT_VALUE )
 2002248:	d0a03817 	ldw	r2,-32544(gp)
 200224c:	1000021e 	bne	r2,zero,2002258 <xAreComTestTasksStillRunning+0x1c>
	{
		xReturn = pdFALSE;
 2002250:	e03fff15 	stw	zero,-4(fp)
 2002254:	00000206 	br	2002260 <xAreComTestTasksStillRunning+0x24>
	}
	else
	{
		xReturn = pdTRUE;
 2002258:	00800044 	movi	r2,1
 200225c:	e0bfff15 	stw	r2,-4(fp)
	}

	/* Reset the count of successful Rx loops.  When this function is called
	again we expect this to have been incremented. */
	uxRxLoops = comINITIAL_RX_COUNT_VALUE;
 2002260:	d0203815 	stw	zero,-32544(gp)

	return xReturn;
 2002264:	e0bfff17 	ldw	r2,-4(fp)
}
 2002268:	e037883a 	mov	sp,fp
 200226c:	df000017 	ldw	fp,0(sp)
 2002270:	dec00104 	addi	sp,sp,4
 2002274:	f800283a 	ret

02002278 <vStartCountingSemaphoreTasks>:
static xCountSemStruct xParameters[ countNUM_TEST_TASKS ];

/*-----------------------------------------------------------*/

void vStartCountingSemaphoreTasks( void )
{
 2002278:	defffc04 	addi	sp,sp,-16
 200227c:	dfc00315 	stw	ra,12(sp)
 2002280:	df000215 	stw	fp,8(sp)
 2002284:	df000204 	addi	fp,sp,8
	/* Create the semaphores that we are going to use for the test/demo.  The
	first should be created such that it starts at its maximum count value,
	the second should be created such that it starts with a count value of zero. */
	xParameters[ 0 ].xSemaphore = xSemaphoreCreateCounting( countMAX_COUNT_VALUE, countMAX_COUNT_VALUE );
 2002288:	01403204 	movi	r5,200
 200228c:	01003204 	movi	r4,200
 2002290:	20046980 	call	2004698 <xQueueCreateCountingSemaphore>
 2002294:	1007883a 	mov	r3,r2
 2002298:	008080b4 	movhi	r2,514
 200229c:	10b01a04 	addi	r2,r2,-16280
 20022a0:	10c00015 	stw	r3,0(r2)
	xParameters[ 0 ].uxExpectedStartCount = countSTART_AT_MAX_COUNT;
 20022a4:	008080b4 	movhi	r2,514
 20022a8:	10b01a04 	addi	r2,r2,-16280
 20022ac:	00c02a84 	movi	r3,170
 20022b0:	10c00115 	stw	r3,4(r2)
	xParameters[ 0 ].uxLoopCounter = 0;
 20022b4:	008080b4 	movhi	r2,514
 20022b8:	10b01a04 	addi	r2,r2,-16280
 20022bc:	10000215 	stw	zero,8(r2)

	xParameters[ 1 ].xSemaphore = xSemaphoreCreateCounting( countMAX_COUNT_VALUE, 0 );
 20022c0:	000b883a 	mov	r5,zero
 20022c4:	01003204 	movi	r4,200
 20022c8:	20046980 	call	2004698 <xQueueCreateCountingSemaphore>
 20022cc:	1007883a 	mov	r3,r2
 20022d0:	008080b4 	movhi	r2,514
 20022d4:	10b01a04 	addi	r2,r2,-16280
 20022d8:	10c00315 	stw	r3,12(r2)
	xParameters[ 1 ].uxExpectedStartCount = 0;
 20022dc:	008080b4 	movhi	r2,514
 20022e0:	10b01a04 	addi	r2,r2,-16280
 20022e4:	10000415 	stw	zero,16(r2)
	xParameters[ 1 ].uxLoopCounter = 0;
 20022e8:	008080b4 	movhi	r2,514
 20022ec:	10b01a04 	addi	r2,r2,-16280
 20022f0:	10000515 	stw	zero,20(r2)

	/* Were the semaphores created? */
	if( ( xParameters[ 0 ].xSemaphore != NULL ) || ( xParameters[ 1 ].xSemaphore != NULL ) )
 20022f4:	008080b4 	movhi	r2,514
 20022f8:	10b01a04 	addi	r2,r2,-16280
 20022fc:	10800017 	ldw	r2,0(r2)
 2002300:	1000041e 	bne	r2,zero,2002314 <vStartCountingSemaphoreTasks+0x9c>
 2002304:	008080b4 	movhi	r2,514
 2002308:	10b01a04 	addi	r2,r2,-16280
 200230c:	10800317 	ldw	r2,12(r2)
 2002310:	10001426 	beq	r2,zero,2002364 <vStartCountingSemaphoreTasks+0xec>
		defined or is defined to be less than 1. */
		vQueueAddToRegistry( ( QueueHandle_t ) xParameters[ 0 ].xSemaphore, "Counting_Sem_1" );
		vQueueAddToRegistry( ( QueueHandle_t ) xParameters[ 1 ].xSemaphore, "Counting_Sem_2" );

		/* Create the demo tasks, passing in the semaphore to use as the parameter. */
		xTaskCreate( prvCountingSemaphoreTask, "CNT1", configMINIMAL_STACK_SIZE, ( void * ) &( xParameters[ 0 ] ), tskIDLE_PRIORITY, NULL );
 2002314:	d8000115 	stw	zero,4(sp)
 2002318:	d8000015 	stw	zero,0(sp)
 200231c:	01c080b4 	movhi	r7,514
 2002320:	39f01a04 	addi	r7,r7,-16280
 2002324:	01810004 	movi	r6,1024
 2002328:	014080b4 	movhi	r5,514
 200232c:	29673d04 	addi	r5,r5,-25356
 2002330:	01008034 	movhi	r4,512
 2002334:	21094104 	addi	r4,r4,9476
 2002338:	20056e40 	call	20056e4 <xTaskCreate>
		xTaskCreate( prvCountingSemaphoreTask, "CNT2", configMINIMAL_STACK_SIZE, ( void * ) &( xParameters[ 1 ] ), tskIDLE_PRIORITY, NULL );
 200233c:	d8000115 	stw	zero,4(sp)
 2002340:	d8000015 	stw	zero,0(sp)
 2002344:	01c080b4 	movhi	r7,514
 2002348:	39f01d04 	addi	r7,r7,-16268
 200234c:	01810004 	movi	r6,1024
 2002350:	014080b4 	movhi	r5,514
 2002354:	29673f04 	addi	r5,r5,-25348
 2002358:	01008034 	movhi	r4,512
 200235c:	21094104 	addi	r4,r4,9476
 2002360:	20056e40 	call	20056e4 <xTaskCreate>
	}
}
 2002364:	0001883a 	nop
 2002368:	e037883a 	mov	sp,fp
 200236c:	dfc00117 	ldw	ra,4(sp)
 2002370:	df000017 	ldw	fp,0(sp)
 2002374:	dec00204 	addi	sp,sp,8
 2002378:	f800283a 	ret

0200237c <prvDecrementSemaphoreCount>:
/*-----------------------------------------------------------*/

static void prvDecrementSemaphoreCount( SemaphoreHandle_t xSemaphore, volatile UBaseType_t *puxLoopCounter )
{
 200237c:	defffb04 	addi	sp,sp,-20
 2002380:	dfc00415 	stw	ra,16(sp)
 2002384:	df000315 	stw	fp,12(sp)
 2002388:	df000304 	addi	fp,sp,12
 200238c:	e13ffe15 	stw	r4,-8(fp)
 2002390:	e17fff15 	stw	r5,-4(fp)
UBaseType_t ux;

	/* If the semaphore count is at its maximum then we should not be able to
	'give' the semaphore. */
	if( xSemaphoreGive( xSemaphore ) == pdPASS )
 2002394:	000f883a 	mov	r7,zero
 2002398:	000d883a 	mov	r6,zero
 200239c:	000b883a 	mov	r5,zero
 20023a0:	e13ffe17 	ldw	r4,-8(fp)
 20023a4:	20046f00 	call	20046f0 <xQueueGenericSend>
 20023a8:	10800058 	cmpnei	r2,r2,1
 20023ac:	1000021e 	bne	r2,zero,20023b8 <prvDecrementSemaphoreCount+0x3c>
	{
		xErrorDetected = pdTRUE;
 20023b0:	00800044 	movi	r2,1
 20023b4:	d0a03915 	stw	r2,-32540(gp)
	}

	/* We should be able to 'take' the semaphore countMAX_COUNT_VALUE times. */
	for( ux = 0; ux < countMAX_COUNT_VALUE; ux++ )
 20023b8:	e03ffd15 	stw	zero,-12(fp)
 20023bc:	00000f06 	br	20023fc <prvDecrementSemaphoreCount+0x80>
	{
		configASSERT( uxSemaphoreGetCount( xSemaphore ) == ( countMAX_COUNT_VALUE - ux ) );

		if( xSemaphoreTake( xSemaphore, countDONT_BLOCK ) != pdPASS )
 20023c0:	000b883a 	mov	r5,zero
 20023c4:	e13ffe17 	ldw	r4,-8(fp)
 20023c8:	2004c100 	call	2004c10 <xQueueSemaphoreTake>
 20023cc:	10800060 	cmpeqi	r2,r2,1
 20023d0:	1000021e 	bne	r2,zero,20023dc <prvDecrementSemaphoreCount+0x60>
		{
			/* We expected to be able to take the semaphore. */
			xErrorDetected = pdTRUE;
 20023d4:	00800044 	movi	r2,1
 20023d8:	d0a03915 	stw	r2,-32540(gp)
		}

		( *puxLoopCounter )++;
 20023dc:	e0bfff17 	ldw	r2,-4(fp)
 20023e0:	10800017 	ldw	r2,0(r2)
 20023e4:	10c00044 	addi	r3,r2,1
 20023e8:	e0bfff17 	ldw	r2,-4(fp)
 20023ec:	10c00015 	stw	r3,0(r2)
	{
		xErrorDetected = pdTRUE;
	}

	/* We should be able to 'take' the semaphore countMAX_COUNT_VALUE times. */
	for( ux = 0; ux < countMAX_COUNT_VALUE; ux++ )
 20023f0:	e0bffd17 	ldw	r2,-12(fp)
 20023f4:	10800044 	addi	r2,r2,1
 20023f8:	e0bffd15 	stw	r2,-12(fp)
 20023fc:	e0bffd17 	ldw	r2,-12(fp)
 2002400:	10803230 	cmpltui	r2,r2,200
 2002404:	103fee1e 	bne	r2,zero,20023c0 <prvDecrementSemaphoreCount+0x44>
	#endif

	/* If the semaphore count is zero then we should not be able to	'take'
	the semaphore. */
	configASSERT( uxSemaphoreGetCount( xSemaphore ) == 0 );
	if( xSemaphoreTake( xSemaphore, countDONT_BLOCK ) == pdPASS )
 2002408:	000b883a 	mov	r5,zero
 200240c:	e13ffe17 	ldw	r4,-8(fp)
 2002410:	2004c100 	call	2004c10 <xQueueSemaphoreTake>
 2002414:	10800058 	cmpnei	r2,r2,1
 2002418:	1000021e 	bne	r2,zero,2002424 <prvDecrementSemaphoreCount+0xa8>
	{
		xErrorDetected = pdTRUE;
 200241c:	00800044 	movi	r2,1
 2002420:	d0a03915 	stw	r2,-32540(gp)
	}
}
 2002424:	0001883a 	nop
 2002428:	e037883a 	mov	sp,fp
 200242c:	dfc00117 	ldw	ra,4(sp)
 2002430:	df000017 	ldw	fp,0(sp)
 2002434:	dec00204 	addi	sp,sp,8
 2002438:	f800283a 	ret

0200243c <prvIncrementSemaphoreCount>:
/*-----------------------------------------------------------*/

static void prvIncrementSemaphoreCount( SemaphoreHandle_t xSemaphore, volatile UBaseType_t *puxLoopCounter )
{
 200243c:	defffb04 	addi	sp,sp,-20
 2002440:	dfc00415 	stw	ra,16(sp)
 2002444:	df000315 	stw	fp,12(sp)
 2002448:	df000304 	addi	fp,sp,12
 200244c:	e13ffe15 	stw	r4,-8(fp)
 2002450:	e17fff15 	stw	r5,-4(fp)
UBaseType_t ux;

	/* If the semaphore count is zero then we should not be able to	'take'
	the semaphore. */
	if( xSemaphoreTake( xSemaphore, countDONT_BLOCK ) == pdPASS )
 2002454:	000b883a 	mov	r5,zero
 2002458:	e13ffe17 	ldw	r4,-8(fp)
 200245c:	2004c100 	call	2004c10 <xQueueSemaphoreTake>
 2002460:	10800058 	cmpnei	r2,r2,1
 2002464:	1000021e 	bne	r2,zero,2002470 <prvIncrementSemaphoreCount+0x34>
	{
		xErrorDetected = pdTRUE;
 2002468:	00800044 	movi	r2,1
 200246c:	d0a03915 	stw	r2,-32540(gp)
	}

	/* We should be able to 'give' the semaphore countMAX_COUNT_VALUE times. */
	for( ux = 0; ux < countMAX_COUNT_VALUE; ux++ )
 2002470:	e03ffd15 	stw	zero,-12(fp)
 2002474:	00001106 	br	20024bc <prvIncrementSemaphoreCount+0x80>
	{
		configASSERT( uxSemaphoreGetCount( xSemaphore ) == ux );

		if( xSemaphoreGive( xSemaphore ) != pdPASS )
 2002478:	000f883a 	mov	r7,zero
 200247c:	000d883a 	mov	r6,zero
 2002480:	000b883a 	mov	r5,zero
 2002484:	e13ffe17 	ldw	r4,-8(fp)
 2002488:	20046f00 	call	20046f0 <xQueueGenericSend>
 200248c:	10800060 	cmpeqi	r2,r2,1
 2002490:	1000021e 	bne	r2,zero,200249c <prvIncrementSemaphoreCount+0x60>
		{
			/* We expected to be able to take the semaphore. */
			xErrorDetected = pdTRUE;
 2002494:	00800044 	movi	r2,1
 2002498:	d0a03915 	stw	r2,-32540(gp)
		}

		( *puxLoopCounter )++;
 200249c:	e0bfff17 	ldw	r2,-4(fp)
 20024a0:	10800017 	ldw	r2,0(r2)
 20024a4:	10c00044 	addi	r3,r2,1
 20024a8:	e0bfff17 	ldw	r2,-4(fp)
 20024ac:	10c00015 	stw	r3,0(r2)
	{
		xErrorDetected = pdTRUE;
	}

	/* We should be able to 'give' the semaphore countMAX_COUNT_VALUE times. */
	for( ux = 0; ux < countMAX_COUNT_VALUE; ux++ )
 20024b0:	e0bffd17 	ldw	r2,-12(fp)
 20024b4:	10800044 	addi	r2,r2,1
 20024b8:	e0bffd15 	stw	r2,-12(fp)
 20024bc:	e0bffd17 	ldw	r2,-12(fp)
 20024c0:	10803230 	cmpltui	r2,r2,200
 20024c4:	103fec1e 	bne	r2,zero,2002478 <prvIncrementSemaphoreCount+0x3c>
		taskYIELD();
	#endif

	/* If the semaphore count is at its maximum then we should not be able to
	'give' the semaphore. */
	if( xSemaphoreGive( xSemaphore ) == pdPASS )
 20024c8:	000f883a 	mov	r7,zero
 20024cc:	000d883a 	mov	r6,zero
 20024d0:	000b883a 	mov	r5,zero
 20024d4:	e13ffe17 	ldw	r4,-8(fp)
 20024d8:	20046f00 	call	20046f0 <xQueueGenericSend>
 20024dc:	10800058 	cmpnei	r2,r2,1
 20024e0:	1000021e 	bne	r2,zero,20024ec <prvIncrementSemaphoreCount+0xb0>
	{
		xErrorDetected = pdTRUE;
 20024e4:	00800044 	movi	r2,1
 20024e8:	d0a03915 	stw	r2,-32540(gp)
	}
}
 20024ec:	0001883a 	nop
 20024f0:	e037883a 	mov	sp,fp
 20024f4:	dfc00117 	ldw	ra,4(sp)
 20024f8:	df000017 	ldw	fp,0(sp)
 20024fc:	dec00204 	addi	sp,sp,8
 2002500:	f800283a 	ret

02002504 <prvCountingSemaphoreTask>:
/*-----------------------------------------------------------*/

static void prvCountingSemaphoreTask( void *pvParameters )
{
 2002504:	defffc04 	addi	sp,sp,-16
 2002508:	dfc00315 	stw	ra,12(sp)
 200250c:	df000215 	stw	fp,8(sp)
 2002510:	df000204 	addi	fp,sp,8
 2002514:	e13fff15 	stw	r4,-4(fp)
		/* Queue a message for printing to say the task has started. */
		vPrintDisplayMessage( &pcTaskStartMsg );
	#endif

	/* The semaphore to be used was passed as the parameter. */
	pxParameter = ( xCountSemStruct * ) pvParameters;
 2002518:	e0bfff17 	ldw	r2,-4(fp)
 200251c:	e0bffe15 	stw	r2,-8(fp)

	/* Did we expect to find the semaphore already at its max count value, or
	at zero? */
	if( pxParameter->uxExpectedStartCount == countSTART_AT_MAX_COUNT )
 2002520:	e0bffe17 	ldw	r2,-8(fp)
 2002524:	10800117 	ldw	r2,4(r2)
 2002528:	10802a98 	cmpnei	r2,r2,170
 200252c:	1000071e 	bne	r2,zero,200254c <prvCountingSemaphoreTask+0x48>
	{
		prvDecrementSemaphoreCount( pxParameter->xSemaphore, &( pxParameter->uxLoopCounter ) );
 2002530:	e0bffe17 	ldw	r2,-8(fp)
 2002534:	10c00017 	ldw	r3,0(r2)
 2002538:	e0bffe17 	ldw	r2,-8(fp)
 200253c:	10800204 	addi	r2,r2,8
 2002540:	100b883a 	mov	r5,r2
 2002544:	1809883a 	mov	r4,r3
 2002548:	200237c0 	call	200237c <prvDecrementSemaphoreCount>
	}

	/* Now we expect the semaphore count to be 0, so this time there is an
	error if we can take the semaphore. */
	if( xSemaphoreTake( pxParameter->xSemaphore, 0 ) == pdPASS )
 200254c:	e0bffe17 	ldw	r2,-8(fp)
 2002550:	10800017 	ldw	r2,0(r2)
 2002554:	000b883a 	mov	r5,zero
 2002558:	1009883a 	mov	r4,r2
 200255c:	2004c100 	call	2004c10 <xQueueSemaphoreTake>
 2002560:	10800058 	cmpnei	r2,r2,1
 2002564:	1000021e 	bne	r2,zero,2002570 <prvCountingSemaphoreTask+0x6c>
	{
		xErrorDetected = pdTRUE;
 2002568:	00800044 	movi	r2,1
 200256c:	d0a03915 	stw	r2,-32540(gp)
	}

	for( ;; )
	{
		prvIncrementSemaphoreCount( pxParameter->xSemaphore, &( pxParameter->uxLoopCounter ) );
 2002570:	e0bffe17 	ldw	r2,-8(fp)
 2002574:	10c00017 	ldw	r3,0(r2)
 2002578:	e0bffe17 	ldw	r2,-8(fp)
 200257c:	10800204 	addi	r2,r2,8
 2002580:	100b883a 	mov	r5,r2
 2002584:	1809883a 	mov	r4,r3
 2002588:	200243c0 	call	200243c <prvIncrementSemaphoreCount>
		prvDecrementSemaphoreCount( pxParameter->xSemaphore, &( pxParameter->uxLoopCounter ) );
 200258c:	e0bffe17 	ldw	r2,-8(fp)
 2002590:	10c00017 	ldw	r3,0(r2)
 2002594:	e0bffe17 	ldw	r2,-8(fp)
 2002598:	10800204 	addi	r2,r2,8
 200259c:	100b883a 	mov	r5,r2
 20025a0:	1809883a 	mov	r4,r3
 20025a4:	200237c0 	call	200237c <prvDecrementSemaphoreCount>
	}
 20025a8:	003ff106 	br	2002570 <prvCountingSemaphoreTask+0x6c>

020025ac <xAreCountingSemaphoreTasksStillRunning>:
}
/*-----------------------------------------------------------*/

BaseType_t xAreCountingSemaphoreTasksStillRunning( void )
{
 20025ac:	defffe04 	addi	sp,sp,-8
 20025b0:	df000115 	stw	fp,4(sp)
 20025b4:	df000104 	addi	fp,sp,4
static UBaseType_t uxLastCount0 = 0, uxLastCount1 = 0;
BaseType_t xReturn = pdPASS;
 20025b8:	00800044 	movi	r2,1
 20025bc:	e0bfff15 	stw	r2,-4(fp)

	/* Return fail if any 'give' or 'take' did not result in the expected
	behaviour. */
	if( xErrorDetected != pdFALSE )
 20025c0:	d0a03917 	ldw	r2,-32540(gp)
 20025c4:	10000126 	beq	r2,zero,20025cc <xAreCountingSemaphoreTasksStillRunning+0x20>
	{
		xReturn = pdFAIL;
 20025c8:	e03fff15 	stw	zero,-4(fp)
	}

	/* Return fail if either task is not still incrementing its loop counter. */
	if( uxLastCount0 == xParameters[ 0 ].uxLoopCounter )
 20025cc:	008080b4 	movhi	r2,514
 20025d0:	10b01a04 	addi	r2,r2,-16280
 20025d4:	10c00217 	ldw	r3,8(r2)
 20025d8:	d0a03a17 	ldw	r2,-32536(gp)
 20025dc:	1880021e 	bne	r3,r2,20025e8 <xAreCountingSemaphoreTasksStillRunning+0x3c>
	{
		xReturn = pdFAIL;
 20025e0:	e03fff15 	stw	zero,-4(fp)
 20025e4:	00000406 	br	20025f8 <xAreCountingSemaphoreTasksStillRunning+0x4c>
	}
	else
	{
		uxLastCount0 = xParameters[ 0 ].uxLoopCounter;
 20025e8:	008080b4 	movhi	r2,514
 20025ec:	10b01a04 	addi	r2,r2,-16280
 20025f0:	10800217 	ldw	r2,8(r2)
 20025f4:	d0a03a15 	stw	r2,-32536(gp)
	}

	if( uxLastCount1 == xParameters[ 1 ].uxLoopCounter )
 20025f8:	008080b4 	movhi	r2,514
 20025fc:	10b01a04 	addi	r2,r2,-16280
 2002600:	10c00517 	ldw	r3,20(r2)
 2002604:	d0a03b17 	ldw	r2,-32532(gp)
 2002608:	1880021e 	bne	r3,r2,2002614 <xAreCountingSemaphoreTasksStillRunning+0x68>
	{
		xReturn = pdFAIL;
 200260c:	e03fff15 	stw	zero,-4(fp)
 2002610:	00000406 	br	2002624 <xAreCountingSemaphoreTasksStillRunning+0x78>
	}
	else
	{
		uxLastCount1 = xParameters[ 1 ].uxLoopCounter;
 2002614:	008080b4 	movhi	r2,514
 2002618:	10b01a04 	addi	r2,r2,-16280
 200261c:	10800517 	ldw	r2,20(r2)
 2002620:	d0a03b15 	stw	r2,-32532(gp)
	}

	return xReturn;
 2002624:	e0bfff17 	ldw	r2,-4(fp)
}
 2002628:	e037883a 	mov	sp,fp
 200262c:	df000017 	ldw	fp,0(sp)
 2002630:	dec00104 	addi	sp,sp,4
 2002634:	f800283a 	ret

02002638 <vCreateSuicidalTasks>:
TaskHandle_t xCreatedTask;

/*-----------------------------------------------------------*/

void vCreateSuicidalTasks( UBaseType_t uxPriority )
{
 2002638:	defffb04 	addi	sp,sp,-20
 200263c:	dfc00415 	stw	ra,16(sp)
 2002640:	df000315 	stw	fp,12(sp)
 2002644:	df000304 	addi	fp,sp,12
 2002648:	e13fff15 	stw	r4,-4(fp)
	xTaskCreate( vCreateTasks, "CREATOR", deathSTACK_SIZE, ( void * ) NULL, uxPriority, NULL );
 200264c:	d8000115 	stw	zero,4(sp)
 2002650:	e0bfff17 	ldw	r2,-4(fp)
 2002654:	d8800015 	stw	r2,0(sp)
 2002658:	000f883a 	mov	r7,zero
 200265c:	01810f04 	movi	r6,1084
 2002660:	014080b4 	movhi	r5,514
 2002664:	29674104 	addi	r5,r5,-25340
 2002668:	01008034 	movhi	r4,512
 200266c:	2109c604 	addi	r4,r4,10008
 2002670:	20056e40 	call	20056e4 <xTaskCreate>
}
 2002674:	0001883a 	nop
 2002678:	e037883a 	mov	sp,fp
 200267c:	dfc00117 	ldw	ra,4(sp)
 2002680:	df000017 	ldw	fp,0(sp)
 2002684:	dec00204 	addi	sp,sp,8
 2002688:	f800283a 	ret

0200268c <vSuicidalTask>:
/*-----------------------------------------------------------*/

static portTASK_FUNCTION( vSuicidalTask, pvParameters )
{
 200268c:	defff904 	addi	sp,sp,-28
 2002690:	dfc00615 	stw	ra,24(sp)
 2002694:	df000515 	stw	fp,20(sp)
 2002698:	df000504 	addi	fp,sp,20
 200269c:	e13fff15 	stw	r4,-4(fp)
volatile long l1, l2;
TaskHandle_t xTaskToKill;
const TickType_t xDelay = pdMS_TO_TICKS( ( TickType_t ) 200 );
 20026a0:	00803204 	movi	r2,200
 20026a4:	e0bffc15 	stw	r2,-16(fp)

	/* Test deletion of a task's secure context, if any. */
	portALLOCATE_SECURE_CONTEXT( configMINIMAL_SECURE_STACK_SIZE );

	if( pvParameters != NULL )
 20026a8:	e0bfff17 	ldw	r2,-4(fp)
 20026ac:	10000426 	beq	r2,zero,20026c0 <vSuicidalTask+0x34>
	{
		/* This task is periodically created four times.  Two created tasks are
		passed a handle to the other task so it can kill it before killing itself.
		The other task is passed in null. */
		xTaskToKill = *( TaskHandle_t* )pvParameters;
 20026b0:	e0bfff17 	ldw	r2,-4(fp)
 20026b4:	10800017 	ldw	r2,0(r2)
 20026b8:	e0bffb15 	stw	r2,-20(fp)
 20026bc:	00000106 	br	20026c4 <vSuicidalTask+0x38>
	}
	else
	{
		xTaskToKill = NULL;
 20026c0:	e03ffb15 	stw	zero,-20(fp)
	}

	for( ;; )
	{
		/* Do something random just to use some stack and registers. */
		l1 = 2;
 20026c4:	00800084 	movi	r2,2
 20026c8:	e0bffd15 	stw	r2,-12(fp)
		l2 = 89;
 20026cc:	00801644 	movi	r2,89
 20026d0:	e0bffe15 	stw	r2,-8(fp)
		l2 *= l1;
 20026d4:	e0bffd17 	ldw	r2,-12(fp)
 20026d8:	e0fffe17 	ldw	r3,-8(fp)
 20026dc:	180b883a 	mov	r5,r3
 20026e0:	1009883a 	mov	r4,r2
 20026e4:	20083200 	call	2008320 <__mulsi3>
 20026e8:	e0bffe15 	stw	r2,-8(fp)
		vTaskDelay( xDelay );
 20026ec:	e13ffc17 	ldw	r4,-16(fp)
 20026f0:	2005c900 	call	2005c90 <vTaskDelay>

		if( xTaskToKill != NULL )
 20026f4:	e0bffb17 	ldw	r2,-20(fp)
 20026f8:	103ff226 	beq	r2,zero,20026c4 <vSuicidalTask+0x38>
		{
			/* Make sure the other task has a go before we delete it. */
			vTaskDelay( ( TickType_t ) 0 );
 20026fc:	0009883a 	mov	r4,zero
 2002700:	2005c900 	call	2005c90 <vTaskDelay>

			/* Kill the other task that was created by vCreateTasks(). */
			vTaskDelete( xTaskToKill );
 2002704:	e13ffb17 	ldw	r4,-20(fp)
 2002708:	2005ab80 	call	2005ab8 <vTaskDelete>

			/* Kill ourselves. */
			vTaskDelete( NULL );
 200270c:	0009883a 	mov	r4,zero
 2002710:	2005ab80 	call	2005ab8 <vTaskDelete>
		}
	}
 2002714:	003feb06 	br	20026c4 <vSuicidalTask+0x38>

02002718 <vCreateTasks>:
}/*lint !e818 !e550 Function prototype must be as per standard for task functions. */
/*-----------------------------------------------------------*/

static portTASK_FUNCTION( vCreateTasks, pvParameters )
{
 2002718:	defff904 	addi	sp,sp,-28
 200271c:	dfc00615 	stw	ra,24(sp)
 2002720:	df000515 	stw	fp,20(sp)
 2002724:	df000504 	addi	fp,sp,20
 2002728:	e13fff15 	stw	r4,-4(fp)
const TickType_t xDelay = pdMS_TO_TICKS( ( TickType_t ) 1000 );
 200272c:	0080fa04 	movi	r2,1000
 2002730:	e0bffd15 	stw	r2,-12(fp)
	/* Remove compiler warning about unused parameter. */
	( void ) pvParameters;

	/* Delay at the start to ensure tasks created by other demos have been
	created before storing the current number of tasks. */
	vTaskDelay( xDelay );
 2002734:	e13ffd17 	ldw	r4,-12(fp)
 2002738:	2005c900 	call	2005c90 <vTaskDelay>
	uxTasksRunningAtStart = ( UBaseType_t ) uxTaskGetNumberOfTasks();
 200273c:	20065380 	call	2006538 <uxTaskGetNumberOfTasks>
 2002740:	d0a03d15 	stw	r2,-32524(gp)

	uxPriority = uxTaskPriorityGet( NULL );
 2002744:	0009883a 	mov	r4,zero
 2002748:	2005cec0 	call	2005cec <uxTaskPriorityGet>
 200274c:	e0bffe15 	stw	r2,-8(fp)

	for( ;; )
	{
		/* Just loop round, delaying then creating the four suicidal tasks. */
		vTaskDelay( xDelay );
 2002750:	e13ffd17 	ldw	r4,-12(fp)
 2002754:	2005c900 	call	2005c90 <vTaskDelay>

		xCreatedTask = NULL;
 2002758:	d0203f15 	stw	zero,-32516(gp)

		xTaskCreate( vSuicidalTask, "SUICID1", configMINIMAL_STACK_SIZE, NULL, uxPriority, &xCreatedTask );
 200275c:	d0a03f04 	addi	r2,gp,-32516
 2002760:	d8800115 	stw	r2,4(sp)
 2002764:	e0bffe17 	ldw	r2,-8(fp)
 2002768:	d8800015 	stw	r2,0(sp)
 200276c:	000f883a 	mov	r7,zero
 2002770:	01810004 	movi	r6,1024
 2002774:	014080b4 	movhi	r5,514
 2002778:	29674304 	addi	r5,r5,-25332
 200277c:	01008034 	movhi	r4,512
 2002780:	2109a304 	addi	r4,r4,9868
 2002784:	20056e40 	call	20056e4 <xTaskCreate>
		xTaskCreate( vSuicidalTask, "SUICID2", configMINIMAL_STACK_SIZE, &xCreatedTask, uxPriority, NULL );
 2002788:	d8000115 	stw	zero,4(sp)
 200278c:	e0bffe17 	ldw	r2,-8(fp)
 2002790:	d8800015 	stw	r2,0(sp)
 2002794:	d1e03f04 	addi	r7,gp,-32516
 2002798:	01810004 	movi	r6,1024
 200279c:	014080b4 	movhi	r5,514
 20027a0:	29674504 	addi	r5,r5,-25324
 20027a4:	01008034 	movhi	r4,512
 20027a8:	2109a304 	addi	r4,r4,9868
 20027ac:	20056e40 	call	20056e4 <xTaskCreate>

		++usCreationCount;
 20027b0:	d0a03c0b 	ldhu	r2,-32528(gp)
 20027b4:	10800044 	addi	r2,r2,1
 20027b8:	d0a03c0d 	sth	r2,-32528(gp)
	}
 20027bc:	003fe406 	br	2002750 <vCreateTasks+0x38>

020027c0 <xIsCreateTaskStillRunning>:
/*-----------------------------------------------------------*/

/* This is called to check that the creator task is still running and that there
are not any more than four extra tasks. */
BaseType_t xIsCreateTaskStillRunning( void )
{
 20027c0:	defffd04 	addi	sp,sp,-12
 20027c4:	dfc00215 	stw	ra,8(sp)
 20027c8:	df000115 	stw	fp,4(sp)
 20027cc:	df000104 	addi	fp,sp,4
static uint16_t usLastCreationCount = 0xfff;
BaseType_t xReturn = pdTRUE;
 20027d0:	00800044 	movi	r2,1
 20027d4:	e0bfff15 	stw	r2,-4(fp)
static UBaseType_t uxTasksRunningNow;

	if( usLastCreationCount == usCreationCount )
 20027d8:	d0e0010b 	ldhu	r3,-32764(gp)
 20027dc:	d0a03c0b 	ldhu	r2,-32528(gp)
 20027e0:	18ffffcc 	andi	r3,r3,65535
 20027e4:	10bfffcc 	andi	r2,r2,65535
 20027e8:	1880021e 	bne	r3,r2,20027f4 <xIsCreateTaskStillRunning+0x34>
	{
		xReturn = pdFALSE;
 20027ec:	e03fff15 	stw	zero,-4(fp)
 20027f0:	00000206 	br	20027fc <xIsCreateTaskStillRunning+0x3c>
	}
	else
	{
		usLastCreationCount = usCreationCount;
 20027f4:	d0a03c0b 	ldhu	r2,-32528(gp)
 20027f8:	d0a0010d 	sth	r2,-32764(gp)
	}

	uxTasksRunningNow = ( UBaseType_t ) uxTaskGetNumberOfTasks();
 20027fc:	20065380 	call	2006538 <uxTaskGetNumberOfTasks>
 2002800:	d0a03e15 	stw	r2,-32520(gp)

	if( uxTasksRunningNow < uxTasksRunningAtStart )
 2002804:	d0e03e17 	ldw	r3,-32520(gp)
 2002808:	d0a03d17 	ldw	r2,-32524(gp)
 200280c:	1880022e 	bgeu	r3,r2,2002818 <xIsCreateTaskStillRunning+0x58>
	{
		xReturn = pdFALSE;
 2002810:	e03fff15 	stw	zero,-4(fp)
 2002814:	00000606 	br	2002830 <xIsCreateTaskStillRunning+0x70>
	}
	else if( ( uxTasksRunningNow - uxTasksRunningAtStart ) > uxMaxNumberOfExtraTasksRunning )
 2002818:	d0e03e17 	ldw	r3,-32520(gp)
 200281c:	d0a03d17 	ldw	r2,-32524(gp)
 2002820:	1885c83a 	sub	r2,r3,r2
 2002824:	00c000c4 	movi	r3,3
 2002828:	1880012e 	bgeu	r3,r2,2002830 <xIsCreateTaskStillRunning+0x70>
	{
		xReturn = pdFALSE;
 200282c:	e03fff15 	stw	zero,-4(fp)
	else
	{
		/* Everything is okay. */
	}

	return xReturn;
 2002830:	e0bfff17 	ldw	r2,-4(fp)
}
 2002834:	e037883a 	mov	sp,fp
 2002838:	dfc00117 	ldw	ra,4(sp)
 200283c:	df000017 	ldw	fp,0(sp)
 2002840:	dec00204 	addi	sp,sp,8
 2002844:	f800283a 	ret

02002848 <vStartDynamicPriorityTasks>:
/*
 * Start the three tasks as described at the top of the file.
 * Note that the limited count task is given a higher priority.
 */
void vStartDynamicPriorityTasks( void )
{
 2002848:	defffc04 	addi	sp,sp,-16
 200284c:	dfc00315 	stw	ra,12(sp)
 2002850:	df000215 	stw	fp,8(sp)
 2002854:	df000204 	addi	fp,sp,8
	xSuspendedTestQueue = xQueueCreate( priSUSPENDED_QUEUE_LENGTH, sizeof( uint32_t ) );
 2002858:	000d883a 	mov	r6,zero
 200285c:	01400104 	movi	r5,4
 2002860:	01000044 	movi	r4,1
 2002864:	20043840 	call	2004384 <xQueueGenericCreate>
 2002868:	d0a04a15 	stw	r2,-32472(gp)

	if( xSuspendedTestQueue != NULL )
 200286c:	d0a04a17 	ldw	r2,-32472(gp)
 2002870:	10003026 	beq	r2,zero,2002934 <vStartDynamicPriorityTasks+0xec>
		is not being used.  The call to vQueueAddToRegistry() will be removed
		by the pre-processor if configQUEUE_REGISTRY_SIZE is not defined or is
		defined to be less than 1. */
		vQueueAddToRegistry( xSuspendedTestQueue, "Suspended_Test_Queue" );

		xTaskCreate( vContinuousIncrementTask, "CNT_INC", priSTACK_SIZE, ( void * ) &ulCounter, tskIDLE_PRIORITY, &xContinuousIncrementHandle );
 2002874:	d0a04004 	addi	r2,gp,-32512
 2002878:	d8800115 	stw	r2,4(sp)
 200287c:	d8000015 	stw	zero,0(sp)
 2002880:	d1e04204 	addi	r7,gp,-32504
 2002884:	01810004 	movi	r6,1024
 2002888:	014080b4 	movhi	r5,514
 200288c:	29674704 	addi	r5,r5,-25316
 2002890:	01008034 	movhi	r4,512
 2002894:	210a6804 	addi	r4,r4,10656
 2002898:	20056e40 	call	20056e4 <xTaskCreate>
		xTaskCreate( vLimitedIncrementTask, "LIM_INC", priSTACK_SIZE, ( void * ) &ulCounter, tskIDLE_PRIORITY + 1, &xLimitedIncrementHandle );
 200289c:	d0a04104 	addi	r2,gp,-32508
 20028a0:	d8800115 	stw	r2,4(sp)
 20028a4:	00800044 	movi	r2,1
 20028a8:	d8800015 	stw	r2,0(sp)
 20028ac:	d1e04204 	addi	r7,gp,-32504
 20028b0:	01810004 	movi	r6,1024
 20028b4:	014080b4 	movhi	r5,514
 20028b8:	29674904 	addi	r5,r5,-25308
 20028bc:	01008034 	movhi	r4,512
 20028c0:	210a5304 	addi	r4,r4,10572
 20028c4:	20056e40 	call	20056e4 <xTaskCreate>
		xTaskCreate( vCounterControlTask, "C_CTRL", priSUSPENDED_RX_TASK_STACK_SIZE, NULL, tskIDLE_PRIORITY, NULL );
 20028c8:	d8000115 	stw	zero,4(sp)
 20028cc:	d8000015 	stw	zero,0(sp)
 20028d0:	000f883a 	mov	r7,zero
 20028d4:	01810004 	movi	r6,1024
 20028d8:	014080b4 	movhi	r5,514
 20028dc:	29674b04 	addi	r5,r5,-25300
 20028e0:	01008034 	movhi	r4,512
 20028e4:	210a8004 	addi	r4,r4,10752
 20028e8:	20056e40 	call	20056e4 <xTaskCreate>
		xTaskCreate( vQueueSendWhenSuspendedTask, "SUSP_TX", priSTACK_SIZE, NULL, tskIDLE_PRIORITY, NULL );
 20028ec:	d8000115 	stw	zero,4(sp)
 20028f0:	d8000015 	stw	zero,0(sp)
 20028f4:	000f883a 	mov	r7,zero
 20028f8:	01810004 	movi	r6,1024
 20028fc:	014080b4 	movhi	r5,514
 2002900:	29674d04 	addi	r5,r5,-25292
 2002904:	01008034 	movhi	r4,512
 2002908:	210ab704 	addi	r4,r4,10972
 200290c:	20056e40 	call	20056e4 <xTaskCreate>
		xTaskCreate( vQueueReceiveWhenSuspendedTask, "SUSP_RX", priSUSPENDED_RX_TASK_STACK_SIZE, NULL, tskIDLE_PRIORITY, NULL );
 2002910:	d8000115 	stw	zero,4(sp)
 2002914:	d8000015 	stw	zero,0(sp)
 2002918:	000f883a 	mov	r7,zero
 200291c:	01810004 	movi	r6,1024
 2002920:	014080b4 	movhi	r5,514
 2002924:	29674f04 	addi	r5,r5,-25284
 2002928:	01008034 	movhi	r4,512
 200292c:	210ace04 	addi	r4,r4,11064
 2002930:	20056e40 	call	20056e4 <xTaskCreate>
	}
}
 2002934:	0001883a 	nop
 2002938:	e037883a 	mov	sp,fp
 200293c:	dfc00117 	ldw	ra,4(sp)
 2002940:	df000017 	ldw	fp,0(sp)
 2002944:	dec00204 	addi	sp,sp,8
 2002948:	f800283a 	ret

0200294c <vLimitedIncrementTask>:
/*
 * Just loops around incrementing the shared variable until the limit has been
 * reached.  Once the limit has been reached it suspends itself.
 */
static portTASK_FUNCTION( vLimitedIncrementTask, pvParameters )
{
 200294c:	defffc04 	addi	sp,sp,-16
 2002950:	dfc00315 	stw	ra,12(sp)
 2002954:	df000215 	stw	fp,8(sp)
 2002958:	df000204 	addi	fp,sp,8
 200295c:	e13fff15 	stw	r4,-4(fp)
volatile uint32_t *pulCounter;

	/* Take a pointer to the shared variable from the parameters passed into
	the task. */
	pulCounter = ( volatile uint32_t * ) pvParameters;
 2002960:	e0bfff17 	ldw	r2,-4(fp)
 2002964:	e0bffe15 	stw	r2,-8(fp)

	/* This will run before the control task, so the first thing it does is
	suspend - the control task will resume it when ready. */
	vTaskSuspend( NULL );
 2002968:	0009883a 	mov	r4,zero
 200296c:	2005f500 	call	2005f50 <vTaskSuspend>

	for( ;; )
	{
		/* Just count up to a value then suspend. */
		( *pulCounter )++;
 2002970:	e0bffe17 	ldw	r2,-8(fp)
 2002974:	10800017 	ldw	r2,0(r2)
 2002978:	10c00044 	addi	r3,r2,1
 200297c:	e0bffe17 	ldw	r2,-8(fp)
 2002980:	10c00015 	stw	r3,0(r2)

		if( *pulCounter >= priMAX_COUNT )
 2002984:	e0bffe17 	ldw	r2,-8(fp)
 2002988:	10800017 	ldw	r2,0(r2)
 200298c:	10803ff0 	cmpltui	r2,r2,255
 2002990:	103ff71e 	bne	r2,zero,2002970 <vLimitedIncrementTask+0x24>
		{
			vTaskSuspend( NULL );
 2002994:	0009883a 	mov	r4,zero
 2002998:	2005f500 	call	2005f50 <vTaskSuspend>
		}
	}
 200299c:	003ff406 	br	2002970 <vLimitedIncrementTask+0x24>

020029a0 <vContinuousIncrementTask>:
/*
 * Just keep counting the shared variable up.  The control task will suspend
 * this task when it wants.
 */
static portTASK_FUNCTION( vContinuousIncrementTask, pvParameters )
{
 20029a0:	defffb04 	addi	sp,sp,-20
 20029a4:	dfc00415 	stw	ra,16(sp)
 20029a8:	df000315 	stw	fp,12(sp)
 20029ac:	df000304 	addi	fp,sp,12
 20029b0:	e13fff15 	stw	r4,-4(fp)
volatile uint32_t *pulCounter;
UBaseType_t uxOurPriority;

	/* Take a pointer to the shared variable from the parameters passed into
	the task. */
	pulCounter = ( volatile uint32_t * ) pvParameters;
 20029b4:	e0bfff17 	ldw	r2,-4(fp)
 20029b8:	e0bffd15 	stw	r2,-12(fp)

	/* Query our priority so we can raise it when exclusive access to the
	shared variable is required. */
	uxOurPriority = uxTaskPriorityGet( NULL );
 20029bc:	0009883a 	mov	r4,zero
 20029c0:	2005cec0 	call	2005cec <uxTaskPriorityGet>
 20029c4:	e0bffe15 	stw	r2,-8(fp)

	for( ;; )
	{
		/* Raise the priority above the controller task to ensure a context
		switch does not occur while the variable is being accessed. */
		vTaskPrioritySet( NULL, uxOurPriority + 1 );
 20029c8:	e0bffe17 	ldw	r2,-8(fp)
 20029cc:	10800044 	addi	r2,r2,1
 20029d0:	100b883a 	mov	r5,r2
 20029d4:	0009883a 	mov	r4,zero
 20029d8:	2005d900 	call	2005d90 <vTaskPrioritySet>
		{
			configASSERT( ( uxTaskPriorityGet( NULL ) == ( uxOurPriority + 1 ) ) );
			( *pulCounter )++;
 20029dc:	e0bffd17 	ldw	r2,-12(fp)
 20029e0:	10800017 	ldw	r2,0(r2)
 20029e4:	10c00044 	addi	r3,r2,1
 20029e8:	e0bffd17 	ldw	r2,-12(fp)
 20029ec:	10c00015 	stw	r3,0(r2)
		}
		vTaskPrioritySet( NULL, uxOurPriority );
 20029f0:	e17ffe17 	ldw	r5,-8(fp)
 20029f4:	0009883a 	mov	r4,zero
 20029f8:	2005d900 	call	2005d90 <vTaskPrioritySet>
		#if( configUSE_PREEMPTION == 0 )
			taskYIELD();
		#endif

		configASSERT( ( uxTaskPriorityGet( NULL ) == uxOurPriority ) );
	}
 20029fc:	003ff206 	br	20029c8 <vContinuousIncrementTask+0x28>

02002a00 <vCounterControlTask>:

/*
 * Controller task as described above.
 */
static portTASK_FUNCTION( vCounterControlTask, pvParameters )
{
 2002a00:	defffb04 	addi	sp,sp,-20
 2002a04:	dfc00415 	stw	ra,16(sp)
 2002a08:	df000315 	stw	fp,12(sp)
 2002a0c:	df000304 	addi	fp,sp,12
 2002a10:	e13fff15 	stw	r4,-4(fp)
uint32_t ulLastCounter;
short sLoops;
short sError = pdFALSE;
 2002a14:	e03ffd8d 	sth	zero,-10(fp)
	( void ) pvParameters;

	for( ;; )
	{
		/* Start with the counter at zero. */
		ulCounter = ( uint32_t ) 0;
 2002a18:	d0204215 	stw	zero,-32504(gp)

		/* First section : */

		/* Check the continuous count task is running. */
		for( sLoops = 0; sLoops < priLOOPS; sLoops++ )
 2002a1c:	e03ffd0d 	sth	zero,-12(fp)
 2002a20:	00001406 	br	2002a74 <vCounterControlTask+0x74>
		{
			/* Suspend the continuous count task so we can take a mirror of the
			shared variable without risk of corruption.  This is not really
			needed as the other task raises its priority above this task's
			priority. */
			vTaskSuspend( xContinuousIncrementHandle );
 2002a24:	d0a04017 	ldw	r2,-32512(gp)
 2002a28:	1009883a 	mov	r4,r2
 2002a2c:	2005f500 	call	2005f50 <vTaskSuspend>
				{
					configASSERT( eTaskGetState( xContinuousIncrementHandle ) == eSuspended );
				}
				#endif /* INCLUDE_eTaskGetState */

				ulLastCounter = ulCounter;
 2002a30:	d0a04217 	ldw	r2,-32504(gp)
 2002a34:	e0bffe15 	stw	r2,-8(fp)
			}
			vTaskResume( xContinuousIncrementHandle );
 2002a38:	d0a04017 	ldw	r2,-32512(gp)
 2002a3c:	1009883a 	mov	r4,r2
 2002a40:	20060b80 	call	20060b8 <vTaskResume>
				configASSERT( eTaskGetState( xContinuousIncrementHandle ) == eReady );
			}
			#endif /* INCLUDE_eTaskGetState */

			/* Now delay to ensure the other task has processor time. */
			vTaskDelay( priSLEEP_TIME );
 2002a44:	01002004 	movi	r4,128
 2002a48:	2005c900 	call	2005c90 <vTaskDelay>

			/* Check the shared variable again.  This time to ensure mutual
			exclusion the whole scheduler will be locked.  This is just for
			demo purposes! */
			vTaskSuspendAll();
 2002a4c:	20063540 	call	2006354 <vTaskSuspendAll>
			{
				if( ulLastCounter == ulCounter )
 2002a50:	d0a04217 	ldw	r2,-32504(gp)
 2002a54:	e0fffe17 	ldw	r3,-8(fp)
 2002a58:	1880021e 	bne	r3,r2,2002a64 <vCounterControlTask+0x64>
				{
					/* The shared variable has not changed.  There is a problem
					with the continuous count task so flag an error. */
					sError = pdTRUE;
 2002a5c:	00800044 	movi	r2,1
 2002a60:	e0bffd8d 	sth	r2,-10(fp)
				}
			}
			xTaskResumeAll();
 2002a64:	20063800 	call	2006380 <xTaskResumeAll>
		ulCounter = ( uint32_t ) 0;

		/* First section : */

		/* Check the continuous count task is running. */
		for( sLoops = 0; sLoops < priLOOPS; sLoops++ )
 2002a68:	e0bffd0b 	ldhu	r2,-12(fp)
 2002a6c:	10800044 	addi	r2,r2,1
 2002a70:	e0bffd0d 	sth	r2,-12(fp)
 2002a74:	e0bffd0f 	ldh	r2,-12(fp)
 2002a78:	10800150 	cmplti	r2,r2,5
 2002a7c:	103fe91e 	bne	r2,zero,2002a24 <vCounterControlTask+0x24>

		/* Second section: */

		/* Suspend the continuous counter task so it stops accessing the shared
		variable. */
		vTaskSuspend( xContinuousIncrementHandle );
 2002a80:	d0a04017 	ldw	r2,-32512(gp)
 2002a84:	1009883a 	mov	r4,r2
 2002a88:	2005f500 	call	2005f50 <vTaskSuspend>

		/* Reset the variable. */
		ulCounter = ( uint32_t ) 0;
 2002a8c:	d0204215 	stw	zero,-32504(gp)
		#endif /* INCLUDE_eTaskGetState */

		/* Resume the limited count task which has a higher priority than us.
		We should therefore not return from this call until the limited count
		task has suspended itself with a known value in the counter variable. */
		vTaskResume( xLimitedIncrementHandle );
 2002a90:	d0a04117 	ldw	r2,-32508(gp)
 2002a94:	1009883a 	mov	r4,r2
 2002a98:	20060b80 	call	20060b8 <vTaskResume>
			configASSERT( eTaskGetState( xLimitedIncrementHandle ) == eSuspended );
		}
		#endif /* INCLUDE_eTaskGetState */

		/* Does the counter variable have the expected value? */
		if( ulCounter != priMAX_COUNT )
 2002a9c:	d0a04217 	ldw	r2,-32504(gp)
 2002aa0:	10803fe0 	cmpeqi	r2,r2,255
 2002aa4:	1000021e 	bne	r2,zero,2002ab0 <vCounterControlTask+0xb0>
		{
			sError = pdTRUE;
 2002aa8:	00800044 	movi	r2,1
 2002aac:	e0bffd8d 	sth	r2,-10(fp)
		}

		if( sError == pdFALSE )
 2002ab0:	e0bffd8f 	ldh	r2,-10(fp)
 2002ab4:	1000051e 	bne	r2,zero,2002acc <vCounterControlTask+0xcc>
		{
			/* If no errors have occurred then increment the check variable. */
			portENTER_CRITICAL();
 2002ab8:	20073180 	call	2007318 <vTaskEnterCritical>
				usCheckVariable++;
 2002abc:	d0a0430b 	ldhu	r2,-32500(gp)
 2002ac0:	10800044 	addi	r2,r2,1
 2002ac4:	d0a0430d 	sth	r2,-32500(gp)
			portEXIT_CRITICAL();
 2002ac8:	200736c0 	call	200736c <vTaskExitCritical>
		}

		/* Resume the continuous count task and do it all again. */
		vTaskResume( xContinuousIncrementHandle );
 2002acc:	d0a04017 	ldw	r2,-32512(gp)
 2002ad0:	1009883a 	mov	r4,r2
 2002ad4:	20060b80 	call	20060b8 <vTaskResume>

		#if( configUSE_PREEMPTION == 0 )
			taskYIELD();
		#endif
	}
 2002ad8:	003fcf06 	br	2002a18 <vCounterControlTask+0x18>

02002adc <vQueueSendWhenSuspendedTask>:
}
/*-----------------------------------------------------------*/

static portTASK_FUNCTION( vQueueSendWhenSuspendedTask, pvParameters )
{
 2002adc:	defffd04 	addi	sp,sp,-12
 2002ae0:	dfc00215 	stw	ra,8(sp)
 2002ae4:	df000115 	stw	fp,4(sp)
 2002ae8:	df000104 	addi	fp,sp,4
 2002aec:	e13fff15 	stw	r4,-4(fp)
	/* Just to stop warning messages. */
	( void ) pvParameters;

	for( ;; )
	{
		vTaskSuspendAll();
 2002af0:	20063540 	call	2006354 <vTaskSuspendAll>
		{
			/* We must not block while the scheduler is suspended! */
			if( xQueueSend( xSuspendedTestQueue, ( void * ) &ulValueToSend, priNO_BLOCK ) != pdTRUE )
 2002af4:	d0a04a17 	ldw	r2,-32472(gp)
 2002af8:	000f883a 	mov	r7,zero
 2002afc:	000d883a 	mov	r6,zero
 2002b00:	d1604704 	addi	r5,gp,-32484
 2002b04:	1009883a 	mov	r4,r2
 2002b08:	20046f00 	call	20046f0 <xQueueGenericSend>
 2002b0c:	10800060 	cmpeqi	r2,r2,1
 2002b10:	1000021e 	bne	r2,zero,2002b1c <vQueueSendWhenSuspendedTask+0x40>
			{
				xSuspendedQueueSendError = pdTRUE;
 2002b14:	00800044 	movi	r2,1
 2002b18:	d0a04415 	stw	r2,-32496(gp)
			}
		}
		xTaskResumeAll();
 2002b1c:	20063800 	call	2006380 <xTaskResumeAll>

		vTaskDelay( priSLEEP_TIME );
 2002b20:	01002004 	movi	r4,128
 2002b24:	2005c900 	call	2005c90 <vTaskDelay>

		++ulValueToSend;
 2002b28:	d0a04717 	ldw	r2,-32484(gp)
 2002b2c:	10800044 	addi	r2,r2,1
 2002b30:	d0a04715 	stw	r2,-32484(gp)
	}
 2002b34:	003fee06 	br	2002af0 <vQueueSendWhenSuspendedTask+0x14>

02002b38 <vQueueReceiveWhenSuspendedTask>:
}
/*-----------------------------------------------------------*/

static portTASK_FUNCTION( vQueueReceiveWhenSuspendedTask, pvParameters )
{
 2002b38:	defffb04 	addi	sp,sp,-20
 2002b3c:	dfc00415 	stw	ra,16(sp)
 2002b40:	df000315 	stw	fp,12(sp)
 2002b44:	df000304 	addi	fp,sp,12
 2002b48:	e13fff15 	stw	r4,-4(fp)
			/* Suspending the scheduler here is fairly pointless and
			undesirable for a normal application.  It is done here purely
			to test the scheduler.  The inner xTaskResumeAll() should
			never return pdTRUE as the scheduler is still locked by the
			outer call. */
			vTaskSuspendAll();
 2002b4c:	20063540 	call	2006354 <vTaskSuspendAll>
			{
				vTaskSuspendAll();
 2002b50:	20063540 	call	2006354 <vTaskSuspendAll>
				{
					xGotValue = xQueueReceive( xSuspendedTestQueue, ( void * ) &ulReceivedValue, priNO_BLOCK );
 2002b54:	d0a04a17 	ldw	r2,-32472(gp)
 2002b58:	e0fffe04 	addi	r3,fp,-8
 2002b5c:	000d883a 	mov	r6,zero
 2002b60:	180b883a 	mov	r5,r3
 2002b64:	1009883a 	mov	r4,r2
 2002b68:	2004a680 	call	2004a68 <xQueueReceive>
 2002b6c:	e0bffd15 	stw	r2,-12(fp)
				}
				if( xTaskResumeAll() != pdFALSE )
 2002b70:	20063800 	call	2006380 <xTaskResumeAll>
 2002b74:	10000226 	beq	r2,zero,2002b80 <vQueueReceiveWhenSuspendedTask+0x48>
				{
					xSuspendedQueueReceiveError = pdTRUE;
 2002b78:	00800044 	movi	r2,1
 2002b7c:	d0a04515 	stw	r2,-32492(gp)
				}
			}
			xTaskResumeAll();
 2002b80:	20063800 	call	2006380 <xTaskResumeAll>
			{
				taskYIELD();
			}
			#endif

		} while( xGotValue == pdFALSE );
 2002b84:	e0bffd17 	ldw	r2,-12(fp)
 2002b88:	103ff026 	beq	r2,zero,2002b4c <vQueueReceiveWhenSuspendedTask+0x14>

		if( ulReceivedValue != ulExpectedValue )
 2002b8c:	e0fffe17 	ldw	r3,-8(fp)
 2002b90:	d0a04617 	ldw	r2,-32488(gp)
 2002b94:	18800226 	beq	r3,r2,2002ba0 <vQueueReceiveWhenSuspendedTask+0x68>
		{
			xSuspendedQueueReceiveError = pdTRUE;
 2002b98:	00800044 	movi	r2,1
 2002b9c:	d0a04515 	stw	r2,-32492(gp)
		}

		if( xSuspendedQueueReceiveError != pdTRUE )
 2002ba0:	d0a04517 	ldw	r2,-32492(gp)
 2002ba4:	10800060 	cmpeqi	r2,r2,1
 2002ba8:	103fe81e 	bne	r2,zero,2002b4c <vQueueReceiveWhenSuspendedTask+0x14>
		{
			/* Only increment the variable if an error has not occurred.  This
			allows xAreDynamicPriorityTasksStillRunning() to check for stalled
			tasks as well as explicit errors. */
			++ulExpectedValue;
 2002bac:	d0a04617 	ldw	r2,-32488(gp)
 2002bb0:	10800044 	addi	r2,r2,1
 2002bb4:	d0a04615 	stw	r2,-32488(gp)
		}
	}
 2002bb8:	003fe406 	br	2002b4c <vQueueReceiveWhenSuspendedTask+0x14>

02002bbc <xAreDynamicPriorityTasksStillRunning>:
}
/*-----------------------------------------------------------*/

/* Called to check that all the created tasks are still running without error. */
BaseType_t xAreDynamicPriorityTasksStillRunning( void )
{
 2002bbc:	defffe04 	addi	sp,sp,-8
 2002bc0:	df000115 	stw	fp,4(sp)
 2002bc4:	df000104 	addi	fp,sp,4
/* Keep a history of the check variables so we know if it has been incremented
since the last call. */
static uint16_t usLastTaskCheck = ( uint16_t ) 0;
static uint32_t ulLastExpectedValue = ( uint32_t ) 0U;
BaseType_t xReturn = pdTRUE;
 2002bc8:	00800044 	movi	r2,1
 2002bcc:	e0bfff15 	stw	r2,-4(fp)

	/* Check the tasks are still running by ensuring the check variable
	is still incrementing. */

	if( usCheckVariable == usLastTaskCheck )
 2002bd0:	d0e0430b 	ldhu	r3,-32500(gp)
 2002bd4:	d0a0480b 	ldhu	r2,-32480(gp)
 2002bd8:	18ffffcc 	andi	r3,r3,65535
 2002bdc:	10bfffcc 	andi	r2,r2,65535
 2002be0:	1880011e 	bne	r3,r2,2002be8 <xAreDynamicPriorityTasksStillRunning+0x2c>
	{
		/* The check has not incremented so an error exists. */
		xReturn = pdFALSE;
 2002be4:	e03fff15 	stw	zero,-4(fp)
	}

	if( ulExpectedValue == ulLastExpectedValue )
 2002be8:	d0e04617 	ldw	r3,-32488(gp)
 2002bec:	d0a04917 	ldw	r2,-32476(gp)
 2002bf0:	1880011e 	bne	r3,r2,2002bf8 <xAreDynamicPriorityTasksStillRunning+0x3c>
	{
		/* The value being received by the queue receive task has not
		incremented so an error exists. */
		xReturn = pdFALSE;
 2002bf4:	e03fff15 	stw	zero,-4(fp)
	}

	if( xSuspendedQueueSendError == pdTRUE )
 2002bf8:	d0a04417 	ldw	r2,-32496(gp)
 2002bfc:	10800058 	cmpnei	r2,r2,1
 2002c00:	1000011e 	bne	r2,zero,2002c08 <xAreDynamicPriorityTasksStillRunning+0x4c>
	{
		xReturn = pdFALSE;
 2002c04:	e03fff15 	stw	zero,-4(fp)
	}

	if( xSuspendedQueueReceiveError == pdTRUE )
 2002c08:	d0a04517 	ldw	r2,-32492(gp)
 2002c0c:	10800058 	cmpnei	r2,r2,1
 2002c10:	1000011e 	bne	r2,zero,2002c18 <xAreDynamicPriorityTasksStillRunning+0x5c>
	{
		xReturn = pdFALSE;
 2002c14:	e03fff15 	stw	zero,-4(fp)
	}

	usLastTaskCheck = usCheckVariable;
 2002c18:	d0a0430b 	ldhu	r2,-32500(gp)
 2002c1c:	d0a0480d 	sth	r2,-32480(gp)
	ulLastExpectedValue = ulExpectedValue;
 2002c20:	d0a04617 	ldw	r2,-32488(gp)
 2002c24:	d0a04915 	stw	r2,-32476(gp)

	return xReturn;
 2002c28:	e0bfff17 	ldw	r2,-4(fp)
}
 2002c2c:	e037883a 	mov	sp,fp
 2002c30:	df000017 	ldw	fp,0(sp)
 2002c34:	dec00104 	addi	sp,sp,4
 2002c38:	f800283a 	ret

02002c3c <vStartLEDFlashTasks>:
static portTASK_FUNCTION_PROTO( vLEDFlashTask, pvParameters );

/*-----------------------------------------------------------*/

void vStartLEDFlashTasks( UBaseType_t uxPriority )
{
 2002c3c:	defffa04 	addi	sp,sp,-24
 2002c40:	dfc00515 	stw	ra,20(sp)
 2002c44:	df000415 	stw	fp,16(sp)
 2002c48:	df000404 	addi	fp,sp,16
 2002c4c:	e13fff15 	stw	r4,-4(fp)
BaseType_t xLEDTask;

	/* Create the three tasks. */
	for( xLEDTask = 0; xLEDTask < ledNUMBER_OF_LEDS; ++xLEDTask )
 2002c50:	e03ffe15 	stw	zero,-8(fp)
 2002c54:	00000d06 	br	2002c8c <vStartLEDFlashTasks+0x50>
	{
		/* Spawn the task. */
		xTaskCreate( vLEDFlashTask, "LEDx", ledSTACK_SIZE, NULL, uxPriority, ( TaskHandle_t * ) NULL );
 2002c58:	d8000115 	stw	zero,4(sp)
 2002c5c:	e0bfff17 	ldw	r2,-4(fp)
 2002c60:	d8800015 	stw	r2,0(sp)
 2002c64:	000f883a 	mov	r7,zero
 2002c68:	01810004 	movi	r6,1024
 2002c6c:	014080b4 	movhi	r5,514
 2002c70:	29675104 	addi	r5,r5,-25276
 2002c74:	01008034 	movhi	r4,512
 2002c78:	210b2c04 	addi	r4,r4,11440
 2002c7c:	20056e40 	call	20056e4 <xTaskCreate>
void vStartLEDFlashTasks( UBaseType_t uxPriority )
{
BaseType_t xLEDTask;

	/* Create the three tasks. */
	for( xLEDTask = 0; xLEDTask < ledNUMBER_OF_LEDS; ++xLEDTask )
 2002c80:	e0bffe17 	ldw	r2,-8(fp)
 2002c84:	10800044 	addi	r2,r2,1
 2002c88:	e0bffe15 	stw	r2,-8(fp)
 2002c8c:	e0bffe17 	ldw	r2,-8(fp)
 2002c90:	108000d0 	cmplti	r2,r2,3
 2002c94:	103ff01e 	bne	r2,zero,2002c58 <vStartLEDFlashTasks+0x1c>
	{
		/* Spawn the task. */
		xTaskCreate( vLEDFlashTask, "LEDx", ledSTACK_SIZE, NULL, uxPriority, ( TaskHandle_t * ) NULL );
	}
}
 2002c98:	0001883a 	nop
 2002c9c:	e037883a 	mov	sp,fp
 2002ca0:	dfc00117 	ldw	ra,4(sp)
 2002ca4:	df000017 	ldw	fp,0(sp)
 2002ca8:	dec00204 	addi	sp,sp,8
 2002cac:	f800283a 	ret

02002cb0 <vLEDFlashTask>:
/*-----------------------------------------------------------*/

static portTASK_FUNCTION( vLEDFlashTask, pvParameters )
{
 2002cb0:	defffa04 	addi	sp,sp,-24
 2002cb4:	dfc00515 	stw	ra,20(sp)
 2002cb8:	df000415 	stw	fp,16(sp)
 2002cbc:	df000404 	addi	fp,sp,16
 2002cc0:	e13fff15 	stw	r4,-4(fp)

	/* The parameters are not used. */
	( void ) pvParameters;

	/* Calculate the LED and flash rate. */
	portENTER_CRITICAL();
 2002cc4:	20073180 	call	2007318 <vTaskEnterCritical>
	{
		/* See which of the eight LED's we should use. */
		uxLED = uxFlashTaskNumber;
 2002cc8:	d0a04b17 	ldw	r2,-32468(gp)
 2002ccc:	e0bffc15 	stw	r2,-16(fp)

		/* Update so the next task uses the next LED. */
		uxFlashTaskNumber++;
 2002cd0:	d0a04b17 	ldw	r2,-32468(gp)
 2002cd4:	10800044 	addi	r2,r2,1
 2002cd8:	d0a04b15 	stw	r2,-32468(gp)
	}
	portEXIT_CRITICAL();
 2002cdc:	200736c0 	call	200736c <vTaskExitCritical>

	xFlashRate = ledFLASH_RATE_BASE + ( ledFLASH_RATE_BASE * ( TickType_t ) uxLED );
 2002ce0:	e0bffc17 	ldw	r2,-16(fp)
 2002ce4:	10800044 	addi	r2,r2,1
 2002ce8:	01405344 	movi	r5,333
 2002cec:	1009883a 	mov	r4,r2
 2002cf0:	20083200 	call	2008320 <__mulsi3>
 2002cf4:	e0bffd15 	stw	r2,-12(fp)
	xFlashRate /= portTICK_PERIOD_MS;

	/* We will turn the LED on and off again in the delay period, so each
	delay is only half the total period. */
	xFlashRate /= ( TickType_t ) 2;
 2002cf8:	e0bffd17 	ldw	r2,-12(fp)
 2002cfc:	1004d07a 	srli	r2,r2,1
 2002d00:	e0bffd15 	stw	r2,-12(fp)

	/* We need to initialise xLastFlashTime prior to the first call to
	vTaskDelayUntil(). */
	xLastFlashTime = xTaskGetTickCount();
 2002d04:	20064e40 	call	20064e4 <xTaskGetTickCount>
 2002d08:	e0bffe15 	stw	r2,-8(fp)

	for(;;)
	{
		/* Delay for half the flash period then turn the LED on. */
		vTaskDelayUntil( &xLastFlashTime, xFlashRate );
 2002d0c:	e0bffe04 	addi	r2,fp,-8
 2002d10:	e17ffd17 	ldw	r5,-12(fp)
 2002d14:	1009883a 	mov	r4,r2
 2002d18:	2005ba00 	call	2005ba0 <vTaskDelayUntil>
		vParTestToggleLED( uxLED );
 2002d1c:	e13ffc17 	ldw	r4,-16(fp)
 2002d20:	20037700 	call	2003770 <vParTestToggleLED>

		/* Delay for half the flash period then turn the LED off. */
		vTaskDelayUntil( &xLastFlashTime, xFlashRate );
 2002d24:	e0bffe04 	addi	r2,fp,-8
 2002d28:	e17ffd17 	ldw	r5,-12(fp)
 2002d2c:	1009883a 	mov	r4,r2
 2002d30:	2005ba00 	call	2005ba0 <vTaskDelayUntil>
		vParTestToggleLED( uxLED );
 2002d34:	e13ffc17 	ldw	r4,-16(fp)
 2002d38:	20037700 	call	2003770 <vParTestToggleLED>
	}
 2002d3c:	003ff306 	br	2002d0c <vLEDFlashTask+0x5c>

02002d40 <vStartIntegerMathTasks>:
static BaseType_t xTaskCheck[ intgNUMBER_OF_TASKS ] = { ( BaseType_t ) pdFALSE };

/*-----------------------------------------------------------*/

void vStartIntegerMathTasks( UBaseType_t uxPriority )
{
 2002d40:	defffa04 	addi	sp,sp,-24
 2002d44:	dfc00515 	stw	ra,20(sp)
 2002d48:	df000415 	stw	fp,16(sp)
 2002d4c:	df000404 	addi	fp,sp,16
 2002d50:	e13fff15 	stw	r4,-4(fp)
short sTask;

	for( sTask = 0; sTask < intgNUMBER_OF_TASKS; sTask++ )
 2002d54:	e03ffe0d 	sth	zero,-8(fp)
 2002d58:	00001206 	br	2002da4 <vStartIntegerMathTasks+0x64>
	{
		xTaskCreate( vCompeteingIntMathTask, "IntMath", intgSTACK_SIZE, ( void * ) &( xTaskCheck[ sTask ] ), uxPriority, ( TaskHandle_t * ) NULL );
 2002d5c:	e0bffe0f 	ldh	r2,-8(fp)
 2002d60:	1085883a 	add	r2,r2,r2
 2002d64:	1087883a 	add	r3,r2,r2
 2002d68:	d0a04c04 	addi	r2,gp,-32464
 2002d6c:	1887883a 	add	r3,r3,r2
 2002d70:	d8000115 	stw	zero,4(sp)
 2002d74:	e0bfff17 	ldw	r2,-4(fp)
 2002d78:	d8800015 	stw	r2,0(sp)
 2002d7c:	180f883a 	mov	r7,r3
 2002d80:	01810004 	movi	r6,1024
 2002d84:	014080b4 	movhi	r5,514
 2002d88:	29675304 	addi	r5,r5,-25268
 2002d8c:	01008034 	movhi	r4,512
 2002d90:	210b7104 	addi	r4,r4,11716
 2002d94:	20056e40 	call	20056e4 <xTaskCreate>

void vStartIntegerMathTasks( UBaseType_t uxPriority )
{
short sTask;

	for( sTask = 0; sTask < intgNUMBER_OF_TASKS; sTask++ )
 2002d98:	e0bffe0b 	ldhu	r2,-8(fp)
 2002d9c:	10800044 	addi	r2,r2,1
 2002da0:	e0bffe0d 	sth	r2,-8(fp)
 2002da4:	e0bffe0f 	ldh	r2,-8(fp)
 2002da8:	00bfec0e 	bge	zero,r2,2002d5c <vStartIntegerMathTasks+0x1c>
	{
		xTaskCreate( vCompeteingIntMathTask, "IntMath", intgSTACK_SIZE, ( void * ) &( xTaskCheck[ sTask ] ), uxPriority, ( TaskHandle_t * ) NULL );
	}
}
 2002dac:	0001883a 	nop
 2002db0:	e037883a 	mov	sp,fp
 2002db4:	dfc00117 	ldw	ra,4(sp)
 2002db8:	df000017 	ldw	fp,0(sp)
 2002dbc:	dec00204 	addi	sp,sp,8
 2002dc0:	f800283a 	ret

02002dc4 <vCompeteingIntMathTask>:
/*-----------------------------------------------------------*/

static portTASK_FUNCTION( vCompeteingIntMathTask, pvParameters )
{
 2002dc4:	defffa04 	addi	sp,sp,-24
 2002dc8:	dfc00515 	stw	ra,20(sp)
 2002dcc:	df000415 	stw	fp,16(sp)
 2002dd0:	df000404 	addi	fp,sp,16
 2002dd4:	e13fff15 	stw	r4,-4(fp)
/* These variables are all effectively set to constants so they are volatile to
ensure the compiler does not just get rid of them. */
volatile long lValue;
short sError = pdFALSE;
 2002dd8:	e03ffc0d 	sth	zero,-16(fp)
volatile BaseType_t *pxTaskHasExecuted;

	/* Set a pointer to the variable we are going to set to true each
	iteration.  This is also a good test of the parameter passing mechanism
	within each port. */
	pxTaskHasExecuted = ( volatile BaseType_t * ) pvParameters;
 2002ddc:	e0bfff17 	ldw	r2,-4(fp)
 2002de0:	e0bffd15 	stw	r2,-12(fp)
	/* Keep performing a calculation and checking the result against a constant. */
	for( ;; )
	{
		/* Perform the calculation.  This will store partial value in
		registers, resulting in a good test of the context switch mechanism. */
		lValue = intgCONST1;
 2002de4:	00801ec4 	movi	r2,123
 2002de8:	e0bffe15 	stw	r2,-8(fp)
		lValue += intgCONST2;
 2002dec:	e0fffe17 	ldw	r3,-8(fp)
 2002df0:	00800134 	movhi	r2,4
 2002df4:	10a511c4 	addi	r2,r2,-27577
 2002df8:	1885883a 	add	r2,r3,r2
 2002dfc:	e0bffe15 	stw	r2,-8(fp)
			taskYIELD();
		}
		#endif

		/* Finish off the calculation. */
		lValue *= intgCONST3;
 2002e00:	e0bffe17 	ldw	r2,-8(fp)
 2002e04:	017fff44 	movi	r5,-3
 2002e08:	1009883a 	mov	r4,r2
 2002e0c:	20083200 	call	2008320 <__mulsi3>
 2002e10:	e0bffe15 	stw	r2,-8(fp)
		lValue /= intgCONST4;
 2002e14:	e0bffe17 	ldw	r2,-8(fp)
 2002e18:	014001c4 	movi	r5,7
 2002e1c:	1009883a 	mov	r4,r2
 2002e20:	200816c0 	call	200816c <__divsi3>
 2002e24:	e0bffe15 	stw	r2,-8(fp)

		/* If the calculation is found to be incorrect we stop setting the
		TaskHasExecuted variable so the check task can see an error has
		occurred. */
		if( lValue != intgEXPECTED_ANSWER ) /*lint !e774 volatile used to prevent this being optimised out. */
 2002e28:	e0fffe17 	ldw	r3,-8(fp)
 2002e2c:	00bfffb4 	movhi	r2,65534
 2002e30:	109dc6c4 	addi	r2,r2,30491
 2002e34:	18800226 	beq	r3,r2,2002e40 <vCompeteingIntMathTask+0x7c>
		{
			sError = pdTRUE;
 2002e38:	00800044 	movi	r2,1
 2002e3c:	e0bffc0d 	sth	r2,-16(fp)
		}

		if( sError == pdFALSE )
 2002e40:	e0bffc0f 	ldh	r2,-16(fp)
 2002e44:	103fe71e 	bne	r2,zero,2002de4 <vCompeteingIntMathTask+0x20>
		{
			/* We have not encountered any errors, so set the flag that show
			we are still executing.  This will be periodically cleared by
			the check task. */
			portENTER_CRITICAL();
 2002e48:	20073180 	call	2007318 <vTaskEnterCritical>
				*pxTaskHasExecuted = pdTRUE;
 2002e4c:	e0bffd17 	ldw	r2,-12(fp)
 2002e50:	00c00044 	movi	r3,1
 2002e54:	10c00015 	stw	r3,0(r2)
			portEXIT_CRITICAL();
 2002e58:	200736c0 	call	200736c <vTaskExitCritical>
		#if configUSE_PREEMPTION == 0
		{
			taskYIELD();
		}
		#endif
	}
 2002e5c:	003fe106 	br	2002de4 <vCompeteingIntMathTask+0x20>

02002e60 <xAreIntegerMathsTaskStillRunning>:
}
/*-----------------------------------------------------------*/

/* This is called to check that all the created tasks are still running. */
BaseType_t xAreIntegerMathsTaskStillRunning( void )
{
 2002e60:	defffd04 	addi	sp,sp,-12
 2002e64:	df000215 	stw	fp,8(sp)
 2002e68:	df000204 	addi	fp,sp,8
BaseType_t xReturn = pdTRUE;
 2002e6c:	00800044 	movi	r2,1
 2002e70:	e0bffe15 	stw	r2,-8(fp)
short sTask;

	/* Check the maths tasks are still running by ensuring their check variables
	are still being set to true. */
	for( sTask = 0; sTask < intgNUMBER_OF_TASKS; sTask++ )
 2002e74:	e03fff0d 	sth	zero,-4(fp)
 2002e78:	00001106 	br	2002ec0 <xAreIntegerMathsTaskStillRunning+0x60>
	{
		if( xTaskCheck[ sTask ] == pdFALSE )
 2002e7c:	e0bfff0f 	ldh	r2,-4(fp)
 2002e80:	1085883a 	add	r2,r2,r2
 2002e84:	1087883a 	add	r3,r2,r2
 2002e88:	d0a04c04 	addi	r2,gp,-32464
 2002e8c:	1885883a 	add	r2,r3,r2
 2002e90:	10800017 	ldw	r2,0(r2)
 2002e94:	1000011e 	bne	r2,zero,2002e9c <xAreIntegerMathsTaskStillRunning+0x3c>
		{
			/* The check has not incremented so an error exists. */
			xReturn = pdFALSE;
 2002e98:	e03ffe15 	stw	zero,-8(fp)
		}

		/* Reset the check variable so we can tell if it has been set by
		the next time around. */
		xTaskCheck[ sTask ] = pdFALSE;
 2002e9c:	e0bfff0f 	ldh	r2,-4(fp)
 2002ea0:	1085883a 	add	r2,r2,r2
 2002ea4:	1087883a 	add	r3,r2,r2
 2002ea8:	d0a04c04 	addi	r2,gp,-32464
 2002eac:	1885883a 	add	r2,r3,r2
 2002eb0:	10000015 	stw	zero,0(r2)
BaseType_t xReturn = pdTRUE;
short sTask;

	/* Check the maths tasks are still running by ensuring their check variables
	are still being set to true. */
	for( sTask = 0; sTask < intgNUMBER_OF_TASKS; sTask++ )
 2002eb4:	e0bfff0b 	ldhu	r2,-4(fp)
 2002eb8:	10800044 	addi	r2,r2,1
 2002ebc:	e0bfff0d 	sth	r2,-4(fp)
 2002ec0:	e0bfff0f 	ldh	r2,-4(fp)
 2002ec4:	00bfed0e 	bge	zero,r2,2002e7c <xAreIntegerMathsTaskStillRunning+0x1c>
		/* Reset the check variable so we can tell if it has been set by
		the next time around. */
		xTaskCheck[ sTask ] = pdFALSE;
	}

	return xReturn;
 2002ec8:	e0bffe17 	ldw	r2,-8(fp)
}
 2002ecc:	e037883a 	mov	sp,fp
 2002ed0:	df000017 	ldw	fp,0(sp)
 2002ed4:	dec00104 	addi	sp,sp,4
 2002ed8:	f800283a 	ret

02002edc <vStartRecursiveMutexTasks>:
static TaskHandle_t xControllingTaskHandle, xBlockingTaskHandle;

/*-----------------------------------------------------------*/

void vStartRecursiveMutexTasks( void )
{
 2002edc:	defffc04 	addi	sp,sp,-16
 2002ee0:	dfc00315 	stw	ra,12(sp)
 2002ee4:	df000215 	stw	fp,8(sp)
 2002ee8:	df000204 	addi	fp,sp,8
	/* Just creates the mutex and the three tasks. */

	xMutex = xSemaphoreCreateRecursiveMutex();
 2002eec:	01000104 	movi	r4,4
 2002ef0:	20045100 	call	2004510 <xQueueCreateMutex>
 2002ef4:	d0a04d15 	stw	r2,-32460(gp)

	if( xMutex != NULL )
 2002ef8:	d0a04d17 	ldw	r2,-32460(gp)
 2002efc:	10001f26 	beq	r2,zero,2002f7c <vStartRecursiveMutexTasks+0xa0>
		is not being used.  The call to vQueueAddToRegistry() will be removed
		by the pre-processor if configQUEUE_REGISTRY_SIZE is not defined or is
		defined to be less than 1. */
		vQueueAddToRegistry( ( QueueHandle_t ) xMutex, "Recursive_Mutex" );

		xTaskCreate( prvRecursiveMutexControllingTask, "Rec1", recmuRECURSIVE_MUTEX_TEST_TASK_STACK_SIZE, NULL, recmuCONTROLLING_TASK_PRIORITY, &xControllingTaskHandle );
 2002f00:	d0a05404 	addi	r2,gp,-32432
 2002f04:	d8800115 	stw	r2,4(sp)
 2002f08:	00800084 	movi	r2,2
 2002f0c:	d8800015 	stw	r2,0(sp)
 2002f10:	000f883a 	mov	r7,zero
 2002f14:	01810004 	movi	r6,1024
 2002f18:	014080b4 	movhi	r5,514
 2002f1c:	29675504 	addi	r5,r5,-25260
 2002f20:	01008034 	movhi	r4,512
 2002f24:	210be504 	addi	r4,r4,12180
 2002f28:	20056e40 	call	20056e4 <xTaskCreate>
		xTaskCreate( prvRecursiveMutexBlockingTask, "Rec2", recmuRECURSIVE_MUTEX_TEST_TASK_STACK_SIZE, NULL, recmuBLOCKING_TASK_PRIORITY, &xBlockingTaskHandle );
 2002f2c:	d0a05504 	addi	r2,gp,-32428
 2002f30:	d8800115 	stw	r2,4(sp)
 2002f34:	00800044 	movi	r2,1
 2002f38:	d8800015 	stw	r2,0(sp)
 2002f3c:	000f883a 	mov	r7,zero
 2002f40:	01810004 	movi	r6,1024
 2002f44:	014080b4 	movhi	r5,514
 2002f48:	29675704 	addi	r5,r5,-25252
 2002f4c:	01008034 	movhi	r4,512
 2002f50:	210c2404 	addi	r4,r4,12432
 2002f54:	20056e40 	call	20056e4 <xTaskCreate>
		xTaskCreate( prvRecursiveMutexPollingTask, "Rec3", recmuRECURSIVE_MUTEX_TEST_TASK_STACK_SIZE, NULL, recmuPOLLING_TASK_PRIORITY, NULL );
 2002f58:	d8000115 	stw	zero,4(sp)
 2002f5c:	d8000015 	stw	zero,0(sp)
 2002f60:	000f883a 	mov	r7,zero
 2002f64:	01810004 	movi	r6,1024
 2002f68:	014080b4 	movhi	r5,514
 2002f6c:	29675904 	addi	r5,r5,-25244
 2002f70:	01008034 	movhi	r4,512
 2002f74:	210c4e04 	addi	r4,r4,12600
 2002f78:	20056e40 	call	20056e4 <xTaskCreate>
	}
}
 2002f7c:	0001883a 	nop
 2002f80:	e037883a 	mov	sp,fp
 2002f84:	dfc00117 	ldw	ra,4(sp)
 2002f88:	df000017 	ldw	fp,0(sp)
 2002f8c:	dec00204 	addi	sp,sp,8
 2002f90:	f800283a 	ret

02002f94 <prvRecursiveMutexControllingTask>:
/*-----------------------------------------------------------*/

static void prvRecursiveMutexControllingTask( void *pvParameters )
{
 2002f94:	defffc04 	addi	sp,sp,-16
 2002f98:	dfc00315 	stw	ra,12(sp)
 2002f9c:	df000215 	stw	fp,8(sp)
 2002fa0:	df000204 	addi	fp,sp,8
 2002fa4:	e13fff15 	stw	r4,-4(fp)
	{
		/* Should not be able to 'give' the mutex, as we have not yet 'taken'
